
vmlinux:     file format elf32-littlearm


Disassembly of section .text:

00000000 <start>:
       0:	e1a00000 	nop			; (mov r0, r0)
       4:	e1a00000 	nop			; (mov r0, r0)
       8:	e1a00000 	nop			; (mov r0, r0)
       c:	e1a00000 	nop			; (mov r0, r0)
      10:	e1a00000 	nop			; (mov r0, r0)
      14:	e1a00000 	nop			; (mov r0, r0)
      18:	e1a00000 	nop			; (mov r0, r0)
      1c:	e1a00000 	nop			; (mov r0, r0)
      20:	ea000002 	b	30 <start+0x30>
      24:	016f2818 	.word	0x016f2818
      28:	00000000 	.word	0x00000000
      2c:	0026f580 	.word	0x0026f580
      30:	e10f9000 	mrs	r9, CPSR
      34:	e1a07001 	mov	r7, r1
      38:	e1a08002 	mov	r8, r2
      3c:	e10f2000 	mrs	r2, CPSR
      40:	e3120003 	tst	r2, #3
      44:	1a000001 	bne	50 <not_angel>
      48:	e3a00017 	mov	r0, #23
      4c:	ef123456 	svc	0x00123456

00000050 <not_angel>:
      50:	e10f0000 	mrs	r0, CPSR
      54:	e1a0e000 	mov	lr, r0
      58:	e20ee01f 	and	lr, lr, #31
      5c:	e35e001a 	cmp	lr, #26
      60:	e38000c0 	orr	r0, r0, #192	; 0xc0
      64:	e3c0001f 	bic	r0, r0, #31
      68:	e3800013 	orr	r0, r0, #19
      6c:	1a000004 	bne	84 <not_angel+0x34>
      70:	e3800c01 	orr	r0, r0, #256	; 0x100
      74:	e28fe00c 	add	lr, pc, #12
      78:	e16ff000 	msr	SPSR_fsxc, r0
      7c:	e12ef30e 	.word	0xe12ef30e
      80:	e160006e 	.word	0xe160006e
      84:	e121f000 	msr	CPSR_c, r0
      88:	e16ff009 	msr	SPSR_fsxc, r9
	...
      a0:	e1a0400f 	mov	r4, pc
      a4:	e204433e 	and	r4, r4, #-134217728	; 0xf8000000
      a8:	e2844902 	add	r4, r4, #32768	; 0x8000
      ac:	eb00007b 	bl	2a0 <cache_on>

000000b0 <restart>:
      b0:	e28f0f6b 	add	r0, pc, #428	; 0x1ac
      b4:	e8901c4e 	ldm	r0, {r1, r2, r3, r6, sl, fp, ip}
      b8:	e590d01c 	ldr	sp, [r0, #28]
      bc:	e0400001 	sub	r0, r0, r1
      c0:	e0866000 	add	r6, r6, r0
      c4:	e08aa000 	add	sl, sl, r0
      c8:	e5da9000 	ldrb	r9, [sl]
      cc:	e5dae001 	ldrb	lr, [sl, #1]
      d0:	e189940e 	orr	r9, r9, lr, lsl #8
      d4:	e5dae002 	ldrb	lr, [sl, #2]
      d8:	e5daa003 	ldrb	sl, [sl, #3]
      dc:	e189980e 	orr	r9, r9, lr, lsl #16
      e0:	e1899c0a 	orr	r9, r9, sl, lsl #24
      e4:	e08dd000 	add	sp, sp, r0
      e8:	e28da801 	add	sl, sp, #65536	; 0x10000
      ec:	e3a05000 	mov	r5, #0
      f0:	e596e000 	ldr	lr, [r6]
      f4:	e59f17d0 	ldr	r1, [pc, #2000]	; 8cc <__armv3_mmu_cache_flush+0xc>
      f8:	e15e0001 	cmp	lr, r1
      fc:	1a00001d 	bne	178 <dtb_check_done>
     100:	e28dd801 	add	sp, sp, #65536	; 0x10000
     104:	e92d500f 	push	{r0, r1, r2, r3, ip, lr}
     108:	e1a00008 	mov	r0, r8
     10c:	e1a01006 	mov	r1, r6
     110:	e04d2006 	sub	r2, sp, r6
     114:	eb001466 	bl	52b4 <atags_to_fdt>
     118:	e3500001 	cmp	r0, #1
     11c:	e2440902 	sub	r0, r4, #32768	; 0x8000
     120:	e2800c01 	add	r0, r0, #256	; 0x100
     124:	e1a01006 	mov	r1, r6
     128:	e04d2006 	sub	r2, sp, r6
     12c:	0b001460 	bleq	52b4 <atags_to_fdt>
     130:	e8bd500f 	pop	{r0, r1, r2, r3, ip, lr}
     134:	e24dd801 	sub	sp, sp, #65536	; 0x10000
     138:	e1a08006 	mov	r8, r6
     13c:	e59f578c 	ldr	r5, [pc, #1932]	; 8d0 <__armv3_mmu_cache_flush+0x10>
     140:	e28f1098 	add	r1, pc, #152	; 0x98
     144:	e0461001 	sub	r1, r6, r1
     148:	e0551001 	subs	r1, r5, r1
     14c:	80899001 	addhi	r9, r9, r1
     150:	e5965004 	ldr	r5, [r6, #4]
     154:	e0251865 	eor	r1, r5, r5, ror #16
     158:	e3c118ff 	bic	r1, r1, #16711680	; 0xff0000
     15c:	e1a05465 	ror	r5, r5, #8
     160:	e0255421 	eor	r5, r5, r1, lsr #8
     164:	e2855007 	add	r5, r5, #7
     168:	e3c55007 	bic	r5, r5, #7
     16c:	e0866005 	add	r6, r6, r5
     170:	e08aa005 	add	sl, sl, r5
     174:	e08dd005 	add	sp, sp, r5

00000178 <dtb_check_done>:
     178:	e28aa901 	add	sl, sl, #16384	; 0x4000
     17c:	e154000a 	cmp	r4, sl
     180:	2a000016 	bcs	1e0 <wont_overwrite>
     184:	e084a009 	add	sl, r4, r9
     188:	e28f9050 	add	r9, pc, #80	; 0x50
     18c:	e15a0009 	cmp	sl, r9
     190:	9a000012 	bls	1e0 <wont_overwrite>
     194:	e28aac09 	add	sl, sl, #2304	; 0x900
     198:	e3caa0ff 	bic	sl, sl, #255	; 0xff
     19c:	e24f50f4 	sub	r5, pc, #244	; 0xf4
     1a0:	e3c5501f 	bic	r5, r5, #31
     1a4:	e0469005 	sub	r9, r6, r5
     1a8:	e289901f 	add	r9, r9, #31
     1ac:	e3c9901f 	bic	r9, r9, #31
     1b0:	e0896005 	add	r6, r9, r5
     1b4:	e089900a 	add	r9, r9, sl
     1b8:	e9365c0f 	ldmdb	r6!, {r0, r1, r2, r3, sl, fp, ip, lr}
     1bc:	e1560005 	cmp	r6, r5
     1c0:	e9295c0f 	stmdb	r9!, {r0, r1, r2, r3, sl, fp, ip, lr}
     1c4:	8afffffb 	bhi	1b8 <dtb_check_done+0x40>
     1c8:	e0496006 	sub	r6, r9, r6
     1cc:	e08dd006 	add	sp, sp, r6
     1d0:	eb000152 	bl	720 <cache_clean_flush>
     1d4:	e24f0f4b 	sub	r0, pc, #300	; 0x12c
     1d8:	e0800006 	add	r0, r0, r6
     1dc:	e1a0f000 	mov	pc, r0

000001e0 <wont_overwrite>:
     1e0:	e1901005 	orrs	r1, r0, r5
     1e4:	0a00000d 	beq	220 <not_relocated>
     1e8:	e08bb000 	add	fp, fp, r0
     1ec:	e08cc000 	add	ip, ip, r0
     1f0:	e0822000 	add	r2, r2, r0
     1f4:	e0833000 	add	r3, r3, r0
     1f8:	e59b1000 	ldr	r1, [fp]
     1fc:	e0811000 	add	r1, r1, r0
     200:	e1510002 	cmp	r1, r2
     204:	21530001 	cmpcs	r3, r1
     208:	80811005 	addhi	r1, r1, r5
     20c:	e48b1004 	str	r1, [fp], #4
     210:	e15b000c 	cmp	fp, ip
     214:	3afffff7 	bcc	1f8 <wont_overwrite+0x18>
     218:	e0822005 	add	r2, r2, r5
     21c:	e0833005 	add	r3, r3, r5

00000220 <not_relocated>:
     220:	e3a00000 	mov	r0, #0
     224:	e4820004 	str	r0, [r2], #4
     228:	e4820004 	str	r0, [r2], #4
     22c:	e4820004 	str	r0, [r2], #4
     230:	e4820004 	str	r0, [r2], #4
     234:	e1520003 	cmp	r2, r3
     238:	3afffff9 	bcc	224 <not_relocated+0x4>
     23c:	e1a00004 	mov	r0, r4
     240:	e1a0100d 	mov	r1, sp
     244:	e28d2801 	add	r2, sp, #65536	; 0x10000
     248:	e1a03007 	mov	r3, r7
     24c:	eb0001c1 	bl	958 <decompress_kernel>
     250:	eb000132 	bl	720 <cache_clean_flush>
     254:	eb000109 	bl	680 <cache_off>
     258:	e1a01007 	mov	r1, r7
     25c:	e1a02008 	mov	r2, r8
     260:	ea00019d 	b	8dc <__enter_kernel>

00000264 <LC0>:
     264:	00000264 0026f580 0026f598 0026f580     d.....&...&...&.
     274:	0026f541 0026f554 0026f578 00270598     A.&.T.&.x.&...'.
     284:	e320f000 e320f000 e320f000 e320f000     .. ... ... ... .
     294:	e320f000 e320f000 e320f000              .. ... ... .

000002a0 <cache_on>:
     2a0:	e3a03008 	mov	r3, #8
     2a4:	ea000088 	b	4cc <call_cache_fn>

000002a8 <__armv4_mpu_cache_on>:
     2a8:	e3a0003f 	mov	r0, #63	; 0x3f
     2ac:	ee060f17 	mcr	15, 0, r0, cr6, cr7, {0}
     2b0:	ee060f37 	mcr	15, 0, r0, cr6, cr7, {1}
     2b4:	e3a00080 	mov	r0, #128	; 0x80
     2b8:	ee020f10 	mcr	15, 0, r0, cr2, cr0, {0}
     2bc:	ee020f30 	mcr	15, 0, r0, cr2, cr0, {1}
     2c0:	ee030f10 	mcr	15, 0, r0, cr3, cr0, {0}
     2c4:	e3a00903 	mov	r0, #49152	; 0xc000
     2c8:	ee050f30 	mcr	15, 0, r0, cr5, cr0, {1}
     2cc:	ee050f10 	mcr	15, 0, r0, cr5, cr0, {0}
     2d0:	e3a00000 	mov	r0, #0
     2d4:	ee070f9a 	mcr	15, 0, r0, cr7, cr10, {4}
     2d8:	ee070f15 	mcr	15, 0, r0, cr7, cr5, {0}
     2dc:	ee070f16 	mcr	15, 0, r0, cr7, cr6, {0}
     2e0:	ee110f10 	mrc	15, 0, r0, cr1, cr0, {0}
     2e4:	e380002d 	orr	r0, r0, #45	; 0x2d
     2e8:	e3800a01 	orr	r0, r0, #4096	; 0x1000
     2ec:	ee010f10 	mcr	15, 0, r0, cr1, cr0, {0}
     2f0:	e3a00000 	mov	r0, #0
     2f4:	ee070f15 	mcr	15, 0, r0, cr7, cr5, {0}
     2f8:	ee070f16 	mcr	15, 0, r0, cr7, cr6, {0}
     2fc:	e1a0f00e 	mov	pc, lr

00000300 <__armv3_mpu_cache_on>:
     300:	e3a0003f 	mov	r0, #63	; 0x3f
     304:	ee060f17 	mcr	15, 0, r0, cr6, cr7, {0}
     308:	e3a00080 	mov	r0, #128	; 0x80
     30c:	ee020f10 	mcr	15, 0, r0, cr2, cr0, {0}
     310:	ee030f10 	mcr	15, 0, r0, cr3, cr0, {0}
     314:	e3a00903 	mov	r0, #49152	; 0xc000
     318:	ee050f10 	mcr	15, 0, r0, cr5, cr0, {0}
     31c:	e3a00000 	mov	r0, #0
     320:	ee070f10 	mcr	15, 0, r0, cr7, cr0, {0}
     324:	ee110f10 	mrc	15, 0, r0, cr1, cr0, {0}
     328:	e380000d 	orr	r0, r0, #13
     32c:	e3a00000 	mov	r0, #0
     330:	ee010f10 	mcr	15, 0, r0, cr1, cr0, {0}
     334:	ee070f10 	mcr	15, 0, r0, cr7, cr0, {0}
     338:	e1a0f00e 	mov	pc, lr

0000033c <__setup_mmu>:
     33c:	e2443901 	sub	r3, r4, #16384	; 0x4000
     340:	e3c330ff 	bic	r3, r3, #255	; 0xff
     344:	e3c33c3f 	bic	r3, r3, #16128	; 0x3f00
     348:	e1a00003 	mov	r0, r3
     34c:	e1a09920 	lsr	r9, r0, #18
     350:	e1a09909 	lsl	r9, r9, #18
     354:	e289a201 	add	sl, r9, #268435456	; 0x10000000
     358:	e3a01012 	mov	r1, #18
     35c:	e3811b03 	orr	r1, r1, #3072	; 0xc00
     360:	e2832901 	add	r2, r3, #16384	; 0x4000
     364:	e1510009 	cmp	r1, r9
     368:	215a0001 	cmpcs	sl, r1
     36c:	e3c1101c 	bic	r1, r1, #28
     370:	33811010 	orrcc	r1, r1, #16
     374:	21811006 	orrcs	r1, r1, r6
     378:	e4801004 	str	r1, [r0], #4
     37c:	e2811601 	add	r1, r1, #1048576	; 0x100000
     380:	e1300002 	teq	r0, r2
     384:	1afffff6 	bne	364 <__setup_mmu+0x28>
     388:	e3861004 	orr	r1, r6, #4
     38c:	e3811b03 	orr	r1, r1, #3072	; 0xc00
     390:	e1a0200f 	mov	r2, pc
     394:	e1a02a22 	lsr	r2, r2, #20
     398:	e1811a02 	orr	r1, r1, r2, lsl #20
     39c:	e0830102 	add	r0, r3, r2, lsl #2
     3a0:	e4801004 	str	r1, [r0], #4
     3a4:	e2811601 	add	r1, r1, #1048576	; 0x100000
     3a8:	e5801000 	str	r1, [r0]
     3ac:	e1a0f00e 	mov	pc, lr

000003b0 <__armv6_mmu_cache_on>:
     3b0:	ee110f10 	mrc	15, 0, r0, cr1, cr0, {0}
     3b4:	e3c00002 	bic	r0, r0, #2
     3b8:	e3800501 	orr	r0, r0, #4194304	; 0x400000
     3bc:	ee010f10 	mcr	15, 0, r0, cr1, cr0, {0}
     3c0:	eaffffff 	b	3c4 <__arm926ejs_mmu_cache_on>

000003c4 <__arm926ejs_mmu_cache_on>:
     3c4:	e1a0c00e 	mov	ip, lr
     3c8:	e3a0601e 	mov	r6, #30
     3cc:	ebffffda 	bl	33c <__setup_mmu>
     3d0:	e3a00000 	mov	r0, #0
     3d4:	ee070f9a 	mcr	15, 0, r0, cr7, cr10, {4}
     3d8:	ee080f17 	mcr	15, 0, r0, cr8, cr7, {0}
     3dc:	ee110f10 	mrc	15, 0, r0, cr1, cr0, {0}
     3e0:	e3800a05 	orr	r0, r0, #20480	; 0x5000
     3e4:	e3800030 	orr	r0, r0, #48	; 0x30
     3e8:	eb00002c 	bl	4a0 <__common_mmu_cache_on>
     3ec:	e3a00000 	mov	r0, #0
     3f0:	ee080f17 	mcr	15, 0, r0, cr8, cr7, {0}
     3f4:	e1a0f00c 	mov	pc, ip

000003f8 <__armv7_mmu_cache_on>:
     3f8:	e1a0c00e 	mov	ip, lr
     3fc:	ee10bf91 	mrc	15, 0, fp, cr0, cr1, {4}
     400:	e31b000f 	tst	fp, #15
     404:	13a0600e 	movne	r6, #14
     408:	1bffffcb 	blne	33c <__setup_mmu>
     40c:	e3a00000 	mov	r0, #0
     410:	ee070f9a 	mcr	15, 0, r0, cr7, cr10, {4}
     414:	e31b000f 	tst	fp, #15
     418:	1e080f17 	mcrne	15, 0, r0, cr8, cr7, {0}
     41c:	ee110f10 	mrc	15, 0, r0, cr1, cr0, {0}
     420:	e3c00201 	bic	r0, r0, #268435456	; 0x10000000
     424:	e3800a05 	orr	r0, r0, #20480	; 0x5000
     428:	e380003c 	orr	r0, r0, #60	; 0x3c
     42c:	e3c00002 	bic	r0, r0, #2
     430:	e3800501 	orr	r0, r0, #4194304	; 0x400000
     434:	1e126f50 	mrcne	15, 0, r6, cr2, cr0, {2}
     438:	13800001 	orrne	r0, r0, #1
     43c:	13e01002 	mvnne	r1, #2
     440:	e3c66102 	bic	r6, r6, #-2147483648	; 0x80000000
     444:	e3c66003 	bic	r6, r6, #3
     448:	1e023f10 	mcrne	15, 0, r3, cr2, cr0, {0}
     44c:	1e031f10 	mcrne	15, 0, r1, cr3, cr0, {0}
     450:	1e026f50 	mcrne	15, 0, r6, cr2, cr0, {2}
     454:	ee070f95 	mcr	15, 0, r0, cr7, cr5, {4}
     458:	ee010f10 	mcr	15, 0, r0, cr1, cr0, {0}
     45c:	ee110f10 	mrc	15, 0, r0, cr1, cr0, {0}
     460:	e3a00000 	mov	r0, #0
     464:	ee070f95 	mcr	15, 0, r0, cr7, cr5, {4}
     468:	e1a0f00c 	mov	pc, ip

0000046c <__fa526_cache_on>:
     46c:	e1a0c00e 	mov	ip, lr
     470:	e3a0601e 	mov	r6, #30
     474:	ebffffb0 	bl	33c <__setup_mmu>
     478:	e3a00000 	mov	r0, #0
     47c:	ee070f17 	mcr	15, 0, r0, cr7, cr7, {0}
     480:	ee070f9a 	mcr	15, 0, r0, cr7, cr10, {4}
     484:	ee080f17 	mcr	15, 0, r0, cr8, cr7, {0}
     488:	ee110f10 	mrc	15, 0, r0, cr1, cr0, {0}
     48c:	e3800a01 	orr	r0, r0, #4096	; 0x1000
     490:	eb000002 	bl	4a0 <__common_mmu_cache_on>
     494:	e3a00000 	mov	r0, #0
     498:	ee080f17 	mcr	15, 0, r0, cr8, cr7, {0}
     49c:	e1a0f00c 	mov	pc, ip

000004a0 <__common_mmu_cache_on>:
     4a0:	e380000d 	orr	r0, r0, #13
     4a4:	e3e01000 	mvn	r1, #0
     4a8:	ee023f10 	mcr	15, 0, r3, cr2, cr0, {0}
     4ac:	ee031f10 	mcr	15, 0, r1, cr3, cr0, {0}
     4b0:	ea000002 	b	4c0 <__common_mmu_cache_on+0x20>
     4b4:	e320f000 	nop	{0}
     4b8:	e320f000 	nop	{0}
     4bc:	e320f000 	nop	{0}
     4c0:	ee010f10 	mcr	15, 0, r0, cr1, cr0, {0}
     4c4:	ee110f10 	mrc	15, 0, r0, cr1, cr0, {0}
     4c8:	e04ef020 	sub	pc, lr, r0, lsr #32

000004cc <call_cache_fn>:
     4cc:	e28fc01c 	add	ip, pc, #28
     4d0:	ee109f10 	mrc	15, 0, r9, cr0, cr0, {0}
     4d4:	e59c1000 	ldr	r1, [ip]
     4d8:	e59c2004 	ldr	r2, [ip, #4]
     4dc:	e0211009 	eor	r1, r1, r9
     4e0:	e1110002 	tst	r1, r2
     4e4:	008cf003 	addeq	pc, ip, r3
     4e8:	e28cc014 	add	ip, ip, #20
     4ec:	eafffff8 	b	4d4 <call_cache_fn+0x8>

000004f0 <proc_types>:
     4f0:	00000000 0000f000 e1a0f00e e1a0f00e     ................
     500:	e1a0f00e 41007000 fff8fe00 e1a0f00e     .....p.A........
     510:	e1a0f00e e1a0f00e 41807200 ffffff00     .........r.A....
     520:	eaffffa7 ea000065 e1a0f00e 41007400     ....e........t.A
     530:	ff00ff00 eaffff71 ea00005a ea0000df     ....q...Z.......
     540:	41009400 ff00ff00 eaffff56 ea00004d     ...A....V...M...
     550:	ea000074 41069260 ff0ffff0 eaffff98     t...`..A........
     560:	ea000056 ea0000b7 00007000 0000f000     V........p......
     570:	e1a0f00e e1a0f00e e1a0f00e 4401a100     ...............D
     580:	ffffffe0 eaffff8e ea00004c ea0000b2     ........L.......
     590:	6901b110 fffffff0 eaffff89 ea000047     ...i........G...
     5a0:	ea0000ad 56056900 ffffff00 eaffff84     .....i.V........
     5b0:	ea000042 ea0000a8 56158000 fffff000     B..........V....
     5c0:	eaffff7f ea00003d ea00009e 56050000     ....=..........V
     5d0:	ff0f0000 eaffff7a ea000038 ea000099     ....z...8.......
     5e0:	66015261 ff01fff1 eaffff9f ea000033     aR.f........3...
     5f0:	ea00005a 00020000 000f0000 eaffff70     Z...........p...
     600:	ea00002e ea000094 00050000 000f0000     ................
     610:	eaffff6b ea000029 ea00008f 00060000     k...)...........
     620:	000f0000 eaffff66 ea000024 ea000085     ....f...$.......
     630:	0007b000 000ff000 eaffff5c ea00001f     ........\.......
     640:	ea00004b 000f0000 000f0000 eaffff69     K...........i...
     650:	ea000021 ea00004c 00000000 00000000     !...L...........
     660:	e1a0f00e e1a0f00e e1a0f00e e320f000     .............. .
     670:	e320f000 e320f000 e320f000 e320f000     .. ... ... ... .

00000680 <cache_off>:
     680:	e3a0300c 	mov	r3, #12
     684:	eaffff90 	b	4cc <call_cache_fn>

00000688 <__armv4_mpu_cache_off>:
     688:	ee110f10 	mrc	15, 0, r0, cr1, cr0, {0}
     68c:	e3c0000d 	bic	r0, r0, #13
     690:	ee010f10 	mcr	15, 0, r0, cr1, cr0, {0}
     694:	e3a00000 	mov	r0, #0
     698:	ee070f9a 	mcr	15, 0, r0, cr7, cr10, {4}
     69c:	ee070f16 	mcr	15, 0, r0, cr7, cr6, {0}
     6a0:	ee070f15 	mcr	15, 0, r0, cr7, cr5, {0}
     6a4:	e1a0f00e 	mov	pc, lr

000006a8 <__armv3_mpu_cache_off>:
     6a8:	ee110f10 	mrc	15, 0, r0, cr1, cr0, {0}
     6ac:	e3c0000d 	bic	r0, r0, #13
     6b0:	ee010f10 	mcr	15, 0, r0, cr1, cr0, {0}
     6b4:	e3a00000 	mov	r0, #0
     6b8:	ee070f10 	mcr	15, 0, r0, cr7, cr0, {0}
     6bc:	e1a0f00e 	mov	pc, lr

000006c0 <__armv4_mmu_cache_off>:
     6c0:	ee110f10 	mrc	15, 0, r0, cr1, cr0, {0}
     6c4:	e3c0000d 	bic	r0, r0, #13
     6c8:	ee010f10 	mcr	15, 0, r0, cr1, cr0, {0}
     6cc:	e3a00000 	mov	r0, #0
     6d0:	ee070f17 	mcr	15, 0, r0, cr7, cr7, {0}
     6d4:	ee080f17 	mcr	15, 0, r0, cr8, cr7, {0}
     6d8:	e1a0f00e 	mov	pc, lr

000006dc <__armv7_mmu_cache_off>:
     6dc:	ee110f10 	mrc	15, 0, r0, cr1, cr0, {0}
     6e0:	e3c0000d 	bic	r0, r0, #13
     6e4:	ee010f10 	mcr	15, 0, r0, cr1, cr0, {0}
     6e8:	e1a0c00e 	mov	ip, lr
     6ec:	eb000026 	bl	78c <__armv7_mmu_cache_flush>
     6f0:	e3a00000 	mov	r0, #0
     6f4:	ee080f17 	mcr	15, 0, r0, cr8, cr7, {0}
     6f8:	ee070fd5 	mcr	15, 0, r0, cr7, cr5, {6}
     6fc:	ee070f9a 	mcr	15, 0, r0, cr7, cr10, {4}
     700:	ee070f95 	mcr	15, 0, r0, cr7, cr5, {4}
     704:	e1a0f00c 	mov	pc, ip
     708:	e320f000 	nop	{0}
     70c:	e320f000 	nop	{0}
     710:	e320f000 	nop	{0}
     714:	e320f000 	nop	{0}
     718:	e320f000 	nop	{0}
     71c:	e320f000 	nop	{0}

00000720 <cache_clean_flush>:
     720:	e3a03010 	mov	r3, #16
     724:	eaffff68 	b	4cc <call_cache_fn>

00000728 <__armv4_mpu_cache_flush>:
     728:	e3a02001 	mov	r2, #1
     72c:	e3a03000 	mov	r3, #0
     730:	ee07cf16 	mcr	15, 0, ip, cr7, cr6, {0}
     734:	e3a010e0 	mov	r1, #224	; 0xe0
     738:	e381333f 	orr	r3, r1, #-67108864	; 0xfc000000
     73c:	ee073f5e 	mcr	15, 0, r3, cr7, cr14, {2}
     740:	e2533301 	subs	r3, r3, #67108864	; 0x4000000
     744:	2afffffc 	bcs	73c <__armv4_mpu_cache_flush+0x14>
     748:	e2511020 	subs	r1, r1, #32
     74c:	2afffff9 	bcs	738 <__armv4_mpu_cache_flush+0x10>
     750:	e3320000 	teq	r2, #0
     754:	1e07cf15 	mcrne	15, 0, ip, cr7, cr5, {0}
     758:	ee07cf9a 	mcr	15, 0, ip, cr7, cr10, {4}
     75c:	e1a0f00e 	mov	pc, lr

00000760 <__fa526_cache_flush>:
     760:	e3a01000 	mov	r1, #0
     764:	ee071f1e 	mcr	15, 0, r1, cr7, cr14, {0}
     768:	ee071f15 	mcr	15, 0, r1, cr7, cr5, {0}
     76c:	ee071f9a 	mcr	15, 0, r1, cr7, cr10, {4}
     770:	e1a0f00e 	mov	pc, lr

00000774 <__armv6_mmu_cache_flush>:
     774:	e3a01000 	mov	r1, #0
     778:	ee071f1e 	mcr	15, 0, r1, cr7, cr14, {0}
     77c:	ee071f15 	mcr	15, 0, r1, cr7, cr5, {0}
     780:	ee071f1f 	mcr	15, 0, r1, cr7, cr15, {0}
     784:	ee071f9a 	mcr	15, 0, r1, cr7, cr10, {4}
     788:	e1a0f00e 	mov	pc, lr

0000078c <__armv7_mmu_cache_flush>:
     78c:	ee10afb1 	mrc	15, 0, sl, cr0, cr1, {5}
     790:	e31a080f 	tst	sl, #983040	; 0xf0000
     794:	e3a0a000 	mov	sl, #0
     798:	0a000001 	beq	7a4 <hierarchical>
     79c:	ee07af1e 	mcr	15, 0, sl, cr7, cr14, {0}
     7a0:	ea000023 	b	834 <iflush>

000007a4 <hierarchical>:
     7a4:	ee07afba 	mcr	15, 0, sl, cr7, cr10, {5}
     7a8:	e92d0eff 	push	{r0, r1, r2, r3, r4, r5, r6, r7, r9, sl, fp}
     7ac:	ee300f30 	mrc	15, 1, r0, cr0, cr0, {1}
     7b0:	e2103407 	ands	r3, r0, #117440512	; 0x7000000
     7b4:	e1a03ba3 	lsr	r3, r3, #23
     7b8:	0a00001a 	beq	828 <finished>
     7bc:	e3a0a000 	mov	sl, #0

000007c0 <loop1>:
     7c0:	e08a20aa 	add	r2, sl, sl, lsr #1
     7c4:	e1a01230 	lsr	r1, r0, r2
     7c8:	e2011007 	and	r1, r1, #7
     7cc:	e3510002 	cmp	r1, #2
     7d0:	ba000011 	blt	81c <skip>
     7d4:	ee40af10 	mcr	15, 2, sl, cr0, cr0, {0}
     7d8:	ee07af95 	mcr	15, 0, sl, cr7, cr5, {4}
     7dc:	ee301f10 	mrc	15, 1, r1, cr0, cr0, {0}
     7e0:	e2012007 	and	r2, r1, #7
     7e4:	e2822004 	add	r2, r2, #4
     7e8:	e59f40e4 	ldr	r4, [pc, #228]	; 8d4 <__armv3_mmu_cache_flush+0x14>
     7ec:	e01441a1 	ands	r4, r4, r1, lsr #3
     7f0:	e16f5f14 	clz	r5, r4
     7f4:	e59f70dc 	ldr	r7, [pc, #220]	; 8d8 <__armv3_mmu_cache_flush+0x18>
     7f8:	e01776a1 	ands	r7, r7, r1, lsr #13

000007fc <loop2>:
     7fc:	e1a09004 	mov	r9, r4

00000800 <loop3>:
     800:	e18ab519 	orr	fp, sl, r9, lsl r5
     804:	e18bb217 	orr	fp, fp, r7, lsl r2
     808:	ee07bf5e 	mcr	15, 0, fp, cr7, cr14, {2}
     80c:	e2599001 	subs	r9, r9, #1
     810:	aafffffa 	bge	800 <loop3>
     814:	e2577001 	subs	r7, r7, #1
     818:	aafffff7 	bge	7fc <loop2>

0000081c <skip>:
     81c:	e28aa002 	add	sl, sl, #2
     820:	e153000a 	cmp	r3, sl
     824:	caffffe5 	bgt	7c0 <loop1>

00000828 <finished>:
     828:	e8bd0eff 	pop	{r0, r1, r2, r3, r4, r5, r6, r7, r9, sl, fp}
     82c:	e3a0a000 	mov	sl, #0
     830:	ee40af10 	mcr	15, 2, sl, cr0, cr0, {0}

00000834 <iflush>:
     834:	ee07af9a 	mcr	15, 0, sl, cr7, cr10, {4}
     838:	ee07af15 	mcr	15, 0, sl, cr7, cr5, {0}
     83c:	ee07af9a 	mcr	15, 0, sl, cr7, cr10, {4}
     840:	ee07af95 	mcr	15, 0, sl, cr7, cr5, {4}
     844:	e1a0f00e 	mov	pc, lr

00000848 <__armv5tej_mmu_cache_flush>:
     848:	ee17ff7e 	mrc	15, 0, APSR_nzcv, cr7, cr14, {3}
     84c:	1afffffd 	bne	848 <__armv5tej_mmu_cache_flush>
     850:	ee070f15 	mcr	15, 0, r0, cr7, cr5, {0}
     854:	ee070f9a 	mcr	15, 0, r0, cr7, cr10, {4}
     858:	e1a0f00e 	mov	pc, lr

0000085c <__armv4_mmu_cache_flush>:
     85c:	e3a02801 	mov	r2, #65536	; 0x10000
     860:	e3a0b020 	mov	fp, #32
     864:	ee103f30 	mrc	15, 0, r3, cr0, cr0, {1}
     868:	e1330009 	teq	r3, r9
     86c:	0a000009 	beq	898 <no_cache_id>
     870:	e1a01923 	lsr	r1, r3, #18
     874:	e2011007 	and	r1, r1, #7
     878:	e3a02b01 	mov	r2, #1024	; 0x400
     87c:	e1a02112 	lsl	r2, r2, r1
     880:	e3130901 	tst	r3, #16384	; 0x4000
     884:	108220a2 	addne	r2, r2, r2, lsr #1
     888:	e1a03623 	lsr	r3, r3, #12
     88c:	e2033003 	and	r3, r3, #3
     890:	e3a0b008 	mov	fp, #8
     894:	e1a0b31b 	lsl	fp, fp, r3

00000898 <no_cache_id>:
     898:	e1a0100f 	mov	r1, pc
     89c:	e3c1103f 	bic	r1, r1, #63	; 0x3f
     8a0:	e0812002 	add	r2, r1, r2
     8a4:	e691300b 	ldr	r3, [r1], fp
     8a8:	e1310002 	teq	r1, r2
     8ac:	1afffffc 	bne	8a4 <no_cache_id+0xc>
     8b0:	ee071f15 	mcr	15, 0, r1, cr7, cr5, {0}
     8b4:	ee071f16 	mcr	15, 0, r1, cr7, cr6, {0}
     8b8:	ee071f9a 	mcr	15, 0, r1, cr7, cr10, {4}
     8bc:	e1a0f00e 	mov	pc, lr

000008c0 <__armv3_mmu_cache_flush>:
     8c0:	e3a01000 	mov	r1, #0
     8c4:	ee071f10 	mcr	15, 0, r1, cr7, cr0, {0}
     8c8:	e1a0f00e 	mov	pc, lr
     8cc:	edfe0dd0 	.word	0xedfe0dd0
     8d0:	00015d70 	.word	0x00015d70
     8d4:	000003ff 	.word	0x000003ff
     8d8:	00007fff 	.word	0x00007fff

000008dc <__enter_kernel>:
     8dc:	e3a00000 	mov	r0, #0
     8e0:	e1a0f004 	mov	pc, r4

000008e4 <reloc_code_end>:
     8e4:	e320f000 	nop	{0}
     8e8:	e320f000 	nop	{0}
     8ec:	e320f000 	nop	{0}
     8f0:	e320f000 	nop	{0}
     8f4:	e320f000 	nop	{0}
     8f8:	e320f000 	nop	{0}
     8fc:	e320f000 	nop	{0}

00000900 <error>:
     900:	e59f3038 	ldr	r3, [pc, #56]	; 940 <error+0x40>
     904:	e08f3003 	add	r3, pc, r3
     908:	e2433001 	sub	r3, r3, #1
     90c:	e5f32001 	ldrb	r2, [r3, #1]!
     910:	e3520000 	cmp	r2, #0
     914:	1afffffc 	bne	90c <error+0xc>
     918:	e4d03001 	ldrb	r3, [r0], #1
     91c:	e3530000 	cmp	r3, #0
     920:	1afffffc 	bne	918 <error+0x18>
     924:	e59f3018 	ldr	r3, [pc, #24]	; 944 <error+0x44>
     928:	e08f3003 	add	r3, pc, r3
     92c:	e2433001 	sub	r3, r3, #1
     930:	e5f32001 	ldrb	r2, [r3, #1]!
     934:	e3520000 	cmp	r2, #0
     938:	1afffffc 	bne	930 <error+0x30>
     93c:	eafffffe 	b	93c <error+0x3c>
     940:	00005870 	.word	0x00005870
     944:	00005850 	.word	0x00005850

00000948 <__div0>:
     948:	e59f0004 	ldr	r0, [pc, #4]	; 954 <__div0+0xc>
     94c:	e08f0000 	add	r0, pc, r0
     950:	eaffffea 	b	900 <error>
     954:	00005840 	.word	0x00005840

00000958 <decompress_kernel>:
     958:	e92d40f8 	push	{r3, r4, r5, r6, r7, lr}
     95c:	e59fe0a0 	ldr	lr, [pc, #160]	; a04 <decompress_kernel+0xac>
     960:	e59fc0a0 	ldr	ip, [pc, #160]	; a08 <decompress_kernel+0xb0>
     964:	e08fe00e 	add	lr, pc, lr
     968:	e59f609c 	ldr	r6, [pc, #156]	; a0c <decompress_kernel+0xb4>
     96c:	e59f509c 	ldr	r5, [pc, #156]	; a10 <decompress_kernel+0xb8>
     970:	e79e700c 	ldr	r7, [lr, ip]
     974:	e59f4098 	ldr	r4, [pc, #152]	; a14 <decompress_kernel+0xbc>
     978:	e59fc098 	ldr	ip, [pc, #152]	; a18 <decompress_kernel+0xc0>
     97c:	e5870000 	str	r0, [r7]
     980:	e79e6006 	ldr	r6, [lr, r6]
     984:	e08fc00c 	add	ip, pc, ip
     988:	e24cc001 	sub	ip, ip, #1
     98c:	e5861000 	str	r1, [r6]
     990:	e79e1005 	ldr	r1, [lr, r5]
     994:	e5812000 	str	r2, [r1]
     998:	e79e2004 	ldr	r2, [lr, r4]
     99c:	e5823000 	str	r3, [r2]
     9a0:	e5fc3001 	ldrb	r3, [ip, #1]!
     9a4:	e3530000 	cmp	r3, #0
     9a8:	1afffffc 	bne	9a0 <decompress_kernel+0x48>
     9ac:	e59fc068 	ldr	ip, [pc, #104]	; a1c <decompress_kernel+0xc4>
     9b0:	e1a02000 	mov	r2, r0
     9b4:	e59f1064 	ldr	r1, [pc, #100]	; a20 <decompress_kernel+0xc8>
     9b8:	e59f3064 	ldr	r3, [pc, #100]	; a24 <decompress_kernel+0xcc>
     9bc:	e79e000c 	ldr	r0, [lr, ip]
     9c0:	e79e1001 	ldr	r1, [lr, r1]
     9c4:	e79e3003 	ldr	r3, [lr, r3]
     9c8:	e0601001 	rsb	r1, r0, r1
     9cc:	eb0009e4 	bl	3164 <do_decompress>
     9d0:	e59f3050 	ldr	r3, [pc, #80]	; a28 <decompress_kernel+0xd0>
     9d4:	e3500000 	cmp	r0, #0
     9d8:	e08f3003 	add	r3, pc, r3
     9dc:	e2433001 	sub	r3, r3, #1
     9e0:	1a000003 	bne	9f4 <decompress_kernel+0x9c>
     9e4:	e5f32001 	ldrb	r2, [r3, #1]!
     9e8:	e3520000 	cmp	r2, #0
     9ec:	1afffffc 	bne	9e4 <decompress_kernel+0x8c>
     9f0:	e8bd80f8 	pop	{r3, r4, r5, r6, r7, pc}
     9f4:	e59f0030 	ldr	r0, [pc, #48]	; a2c <decompress_kernel+0xd4>
     9f8:	e08f0000 	add	r0, pc, r0
     9fc:	e8bd40f8 	pop	{r3, r4, r5, r6, r7, lr}
     a00:	eaffffbe 	b	900 <error>
     a04:	0026ebe8 	.word	0x0026ebe8
     a08:	00000018 	.word	0x00000018
     a0c:	00000020 	.word	0x00000020
     a10:	00000010 	.word	0x00000010
     a14:	0000001c 	.word	0x0000001c
     a18:	00005824 	.word	0x00005824
     a1c:	00000008 	.word	0x00000008
     a20:	00000000 	.word	0x00000000
     a24:	00000014 	.word	0x00000014
     a28:	00005808 	.word	0x00005808
     a2c:	000057c8 	.word	0x000057c8

00000a30 <malloc>:
     a30:	e59f3078 	ldr	r3, [pc, #120]	; ab0 <malloc+0x80>
     a34:	e250c000 	subs	ip, r0, #0
     a38:	e52d4004 	push	{r4}		; (str r4, [sp, #-4]!)
     a3c:	e08f3003 	add	r3, pc, r3
     a40:	ba000018 	blt	aa8 <malloc+0x78>
     a44:	e59f2068 	ldr	r2, [pc, #104]	; ab4 <malloc+0x84>
     a48:	e7931002 	ldr	r1, [r3, r2]
     a4c:	e5912000 	ldr	r2, [r1]
     a50:	e3520000 	cmp	r2, #0
     a54:	059f205c 	ldreq	r2, [pc, #92]	; ab8 <malloc+0x88>
     a58:	07932002 	ldreq	r2, [r3, r2]
     a5c:	05922000 	ldreq	r2, [r2]
     a60:	e2822003 	add	r2, r2, #3
     a64:	e59f4050 	ldr	r4, [pc, #80]	; abc <malloc+0x8c>
     a68:	e3c20003 	bic	r0, r2, #3
     a6c:	e080c00c 	add	ip, r0, ip
     a70:	e581c000 	str	ip, [r1]
     a74:	e7932004 	ldr	r2, [r3, r4]
     a78:	e5922000 	ldr	r2, [r2]
     a7c:	e3520000 	cmp	r2, #0
     a80:	1a000006 	bne	aa0 <malloc+0x70>
     a84:	e59f2034 	ldr	r2, [pc, #52]	; ac0 <malloc+0x90>
     a88:	e7933002 	ldr	r3, [r3, r2]
     a8c:	e5932000 	ldr	r2, [r3]
     a90:	e2822001 	add	r2, r2, #1
     a94:	e5832000 	str	r2, [r3]
     a98:	e8bd0010 	ldmfd	sp!, {r4}
     a9c:	e12fff1e 	bx	lr
     aa0:	e15c0002 	cmp	ip, r2
     aa4:	3afffff6 	bcc	a84 <malloc+0x54>
     aa8:	e3a00000 	mov	r0, #0
     aac:	eafffff9 	b	a98 <malloc+0x68>
     ab0:	0026eb10 	.word	0x0026eb10
     ab4:	00000004 	.word	0x00000004
     ab8:	00000020 	.word	0x00000020
     abc:	00000010 	.word	0x00000010
     ac0:	0000000c 	.word	0x0000000c

00000ac4 <nofill>:
     ac4:	e3e00000 	mvn	r0, #0
     ac8:	e12fff1e 	bx	lr

00000acc <zlib_updatewindow>:
     acc:	e92d40f8 	push	{r3, r4, r5, r6, r7, lr}
     ad0:	e1a07000 	mov	r7, r0
     ad4:	e590401c 	ldr	r4, [r0, #28]
     ad8:	e5905010 	ldr	r5, [r0, #16]
     adc:	e5946024 	ldr	r6, [r4, #36]	; 0x24
     ae0:	e0655001 	rsb	r5, r5, r1
     ae4:	e1550006 	cmp	r5, r6
     ae8:	2a000016 	bcs	b48 <zlib_updatewindow+0x7c>
     aec:	e594302c 	ldr	r3, [r4, #44]	; 0x2c
     af0:	e5940030 	ldr	r0, [r4, #48]	; 0x30
     af4:	e597100c 	ldr	r1, [r7, #12]
     af8:	e0636006 	rsb	r6, r3, r6
     afc:	e1550006 	cmp	r5, r6
     b00:	31a06005 	movcc	r6, r5
     b04:	e0800003 	add	r0, r0, r3
     b08:	e0651001 	rsb	r1, r5, r1
     b0c:	e1a02006 	mov	r2, r6
     b10:	eb000a52 	bl	3460 <memcpy>
     b14:	e0555006 	subs	r5, r5, r6
     b18:	1a000014 	bne	b70 <zlib_updatewindow+0xa4>
     b1c:	e594102c 	ldr	r1, [r4, #44]	; 0x2c
     b20:	e5943024 	ldr	r3, [r4, #36]	; 0x24
     b24:	e5942028 	ldr	r2, [r4, #40]	; 0x28
     b28:	e0861001 	add	r1, r6, r1
     b2c:	e1510003 	cmp	r1, r3
     b30:	e584102c 	str	r1, [r4, #44]	; 0x2c
     b34:	0584502c 	streq	r5, [r4, #44]	; 0x2c
     b38:	e1530002 	cmp	r3, r2
     b3c:	80866002 	addhi	r6, r6, r2
     b40:	85846028 	strhi	r6, [r4, #40]	; 0x28
     b44:	e8bd80f8 	pop	{r3, r4, r5, r6, r7, pc}
     b48:	e590100c 	ldr	r1, [r0, #12]
     b4c:	e1a02006 	mov	r2, r6
     b50:	e5940030 	ldr	r0, [r4, #48]	; 0x30
     b54:	e0661001 	rsb	r1, r6, r1
     b58:	eb000a40 	bl	3460 <memcpy>
     b5c:	e5943024 	ldr	r3, [r4, #36]	; 0x24
     b60:	e3a02000 	mov	r2, #0
     b64:	e584202c 	str	r2, [r4, #44]	; 0x2c
     b68:	e5843028 	str	r3, [r4, #40]	; 0x28
     b6c:	e8bd80f8 	pop	{r3, r4, r5, r6, r7, pc}
     b70:	e597100c 	ldr	r1, [r7, #12]
     b74:	e1a02005 	mov	r2, r5
     b78:	e5940030 	ldr	r0, [r4, #48]	; 0x30
     b7c:	e0651001 	rsb	r1, r5, r1
     b80:	eb000a36 	bl	3460 <memcpy>
     b84:	e5943024 	ldr	r3, [r4, #36]	; 0x24
     b88:	e584502c 	str	r5, [r4, #44]	; 0x2c
     b8c:	e5843028 	str	r3, [r4, #40]	; 0x28
     b90:	e8bd80f8 	pop	{r3, r4, r5, r6, r7, pc}

00000b94 <zlib_inflate_table>:
     b94:	e92d0ff0 	push	{r4, r5, r6, r7, r8, r9, sl, fp}
     b98:	e24dd070 	sub	sp, sp, #112	; 0x70
     b9c:	e59dc094 	ldr	ip, [sp, #148]	; 0x94
     ba0:	e28d7030 	add	r7, sp, #48	; 0x30
     ba4:	e3a04000 	mov	r4, #0
     ba8:	e58d1018 	str	r1, [sp, #24]
     bac:	e28d102e 	add	r1, sp, #46	; 0x2e
     bb0:	e58d300c 	str	r3, [sp, #12]
     bb4:	e28d304e 	add	r3, sp, #78	; 0x4e
     bb8:	e1e140b2 	strh	r4, [r1, #2]!
     bbc:	e1510003 	cmp	r1, r3
     bc0:	1afffffc 	bne	bb8 <zlib_inflate_table+0x24>
     bc4:	e3520000 	cmp	r2, #0
     bc8:	0a00000a 	beq	bf8 <zlib_inflate_table+0x64>
     bcc:	e59d5018 	ldr	r5, [sp, #24]
     bd0:	e1a01005 	mov	r1, r5
     bd4:	e0856082 	add	r6, r5, r2, lsl #1
     bd8:	e0d140b2 	ldrh	r4, [r1], #2
     bdc:	e28d5070 	add	r5, sp, #112	; 0x70
     be0:	e1510006 	cmp	r1, r6
     be4:	e0854084 	add	r4, r5, r4, lsl #1
     be8:	e15454b0 	ldrh	r5, [r4, #-64]	; 0xffffffc0
     bec:	e2855001 	add	r5, r5, #1
     bf0:	e14454b0 	strh	r5, [r4, #-64]	; 0xffffffc0
     bf4:	1afffff7 	bne	bd8 <zlib_inflate_table+0x44>
     bf8:	e59d4090 	ldr	r4, [sp, #144]	; 0x90
     bfc:	e28d1050 	add	r1, sp, #80	; 0x50
     c00:	e3a0500f 	mov	r5, #15
     c04:	e5946000 	ldr	r6, [r4]
     c08:	e17140b2 	ldrh	r4, [r1, #-2]!
     c0c:	e3540000 	cmp	r4, #0
     c10:	1a000014 	bne	c68 <zlib_inflate_table+0xd4>
     c14:	e2555001 	subs	r5, r5, #1
     c18:	1afffffa 	bne	c08 <zlib_inflate_table+0x74>
     c1c:	e59d600c 	ldr	r6, [sp, #12]
     c20:	e3a01000 	mov	r1, #0
     c24:	e59d7090 	ldr	r7, [sp, #144]	; 0x90
     c28:	e1a00001 	mov	r0, r1
     c2c:	e3a02001 	mov	r2, #1
     c30:	e3a0c040 	mov	ip, #64	; 0x40
     c34:	e5963000 	ldr	r3, [r6]
     c38:	e2834008 	add	r4, r3, #8
     c3c:	e5c3c000 	strb	ip, [r3]
     c40:	e5c3c004 	strb	ip, [r3, #4]
     c44:	e5c32001 	strb	r2, [r3, #1]
     c48:	e5c32005 	strb	r2, [r3, #5]
     c4c:	e1c310b2 	strh	r1, [r3, #2]
     c50:	e1c310b6 	strh	r1, [r3, #6]
     c54:	e5864000 	str	r4, [r6]
     c58:	e5872000 	str	r2, [r7]
     c5c:	e28dd070 	add	sp, sp, #112	; 0x70
     c60:	e8bd0ff0 	pop	{r4, r5, r6, r7, r8, r9, sl, fp}
     c64:	e12fff1e 	bx	lr
     c68:	e3550000 	cmp	r5, #0
     c6c:	128d1030 	addne	r1, sp, #48	; 0x30
     c70:	13a0b001 	movne	fp, #1
     c74:	0affffe8 	beq	c1c <zlib_inflate_table+0x88>
     c78:	e1f140b2 	ldrh	r4, [r1, #2]!
     c7c:	e3540000 	cmp	r4, #0
     c80:	1a0000d6 	bne	fe0 <zlib_inflate_table+0x44c>
     c84:	e28bb001 	add	fp, fp, #1
     c88:	e35b0010 	cmp	fp, #16
     c8c:	1afffff9 	bne	c78 <zlib_inflate_table+0xe4>
     c90:	e1a0900b 	mov	r9, fp
     c94:	e28d4030 	add	r4, sp, #48	; 0x30
     c98:	e3a01001 	mov	r1, #1
     c9c:	e1f460b2 	ldrh	r6, [r4, #2]!
     ca0:	e0761081 	rsbs	r1, r6, r1, lsl #1
     ca4:	4a0000cb 	bmi	fd8 <zlib_inflate_table+0x444>
     ca8:	e1540003 	cmp	r4, r3
     cac:	1afffffa 	bne	c9c <zlib_inflate_table+0x108>
     cb0:	e3510000 	cmp	r1, #0
     cb4:	0a000005 	beq	cd0 <zlib_inflate_table+0x13c>
     cb8:	e2703001 	rsbs	r3, r0, #1
     cbc:	33a03000 	movcc	r3, #0
     cc0:	e3550001 	cmp	r5, #1
     cc4:	13833001 	orrne	r3, r3, #1
     cc8:	e3530000 	cmp	r3, #0
     ccc:	1a0000c1 	bne	fd8 <zlib_inflate_table+0x444>
     cd0:	e3a04000 	mov	r4, #0
     cd4:	e28d604c 	add	r6, sp, #76	; 0x4c
     cd8:	e1a03004 	mov	r3, r4
     cdc:	e28d1070 	add	r1, sp, #112	; 0x70
     ce0:	e16141be 	strh	r4, [r1, #-30]!	; 0xffffffe2
     ce4:	e1f740b2 	ldrh	r4, [r7, #2]!
     ce8:	e0833004 	add	r3, r3, r4
     cec:	e1570006 	cmp	r7, r6
     cf0:	e6ff3073 	uxth	r3, r3
     cf4:	e1e130b2 	strh	r3, [r1, #2]!
     cf8:	1afffff9 	bne	ce4 <zlib_inflate_table+0x150>
     cfc:	e3520000 	cmp	r2, #0
     d00:	0a00000e 	beq	d40 <zlib_inflate_table+0x1ac>
     d04:	e59d4018 	ldr	r4, [sp, #24]
     d08:	e3a03000 	mov	r3, #0
     d0c:	e2441002 	sub	r1, r4, #2
     d10:	e1f140b2 	ldrh	r4, [r1, #2]!
     d14:	e28d6070 	add	r6, sp, #112	; 0x70
     d18:	e3540000 	cmp	r4, #0
     d1c:	e0864084 	add	r4, r6, r4, lsl #1
     d20:	115462b0 	ldrhne	r6, [r4, #-32]	; 0xffffffe0
     d24:	12867001 	addne	r7, r6, #1
     d28:	11a06086 	lslne	r6, r6, #1
     d2c:	114472b0 	strhne	r7, [r4, #-32]	; 0xffffffe0
     d30:	118c30b6 	strhne	r3, [ip, r6]
     d34:	e2833001 	add	r3, r3, #1
     d38:	e1530002 	cmp	r3, r2
     d3c:	1afffff3 	bne	d10 <zlib_inflate_table+0x17c>
     d40:	e3500000 	cmp	r0, #0
     d44:	0a0000ab 	beq	ff8 <zlib_inflate_table+0x464>
     d48:	e3500001 	cmp	r0, #1
     d4c:	0a0000e2 	beq	10dc <zlib_inflate_table+0x548>
     d50:	e59f33b0 	ldr	r3, [pc, #944]	; 1108 <zlib_inflate_table+0x574>
     d54:	e3e07000 	mvn	r7, #0
     d58:	e58d7014 	str	r7, [sp, #20]
     d5c:	e08f3003 	add	r3, pc, r3
     d60:	e2831080 	add	r1, r3, #128	; 0x80
     d64:	e28330c0 	add	r3, r3, #192	; 0xc0
     d68:	e58d102c 	str	r1, [sp, #44]	; 0x2c
     d6c:	e58d3028 	str	r3, [sp, #40]	; 0x28
     d70:	e3a02001 	mov	r2, #1
     d74:	e59d400c 	ldr	r4, [sp, #12]
     d78:	e0503002 	subs	r3, r0, r2
     d7c:	e2730000 	rsbs	r0, r3, #0
     d80:	e0b00003 	adcs	r0, r0, r3
     d84:	e1a03b12 	lsl	r3, r2, fp
     d88:	e58d0024 	str	r0, [sp, #36]	; 0x24
     d8c:	e58d3010 	str	r3, [sp, #16]
     d90:	e30035af 	movw	r3, #1455	; 0x5af
     d94:	e59d6010 	ldr	r6, [sp, #16]
     d98:	e5944000 	ldr	r4, [r4]
     d9c:	e1560003 	cmp	r6, r3
     da0:	93a00000 	movls	r0, #0
     da4:	82000001 	andhi	r0, r0, #1
     da8:	e3500000 	cmp	r0, #0
     dac:	e58d4004 	str	r4, [sp, #4]
     db0:	1a000097 	bne	1014 <zlib_inflate_table+0x480>
     db4:	e24cc002 	sub	ip, ip, #2
     db8:	e3e01000 	mvn	r1, #0
     dbc:	e58dc000 	str	ip, [sp]
     dc0:	e1a0a000 	mov	sl, r0
     dc4:	e58d101c 	str	r1, [sp, #28]
     dc8:	e1a0c00b 	mov	ip, fp
     dcc:	e1a01009 	mov	r1, r9
     dd0:	e2467001 	sub	r7, r6, #1
     dd4:	e58d7020 	str	r7, [sp, #32]
     dd8:	e58db008 	str	fp, [sp, #8]
     ddc:	e59d2000 	ldr	r2, [sp]
     de0:	e6ef6071 	uxtb	r6, r1
     de4:	e59d3014 	ldr	r3, [sp, #20]
     de8:	e1f240b2 	ldrh	r4, [r2, #2]!
     dec:	e1530004 	cmp	r3, r4
     df0:	e58d2000 	str	r2, [sp]
     df4:	c3a08000 	movgt	r8, #0
     df8:	ca000006 	bgt	e18 <zlib_inflate_table+0x284>
     dfc:	b59d702c 	ldrlt	r7, [sp, #44]	; 0x2c
     e00:	b1a04084 	lsllt	r4, r4, #1
     e04:	b59d2028 	ldrlt	r2, [sp, #40]	; 0x28
     e08:	a3a04000 	movge	r4, #0
     e0c:	a3a08060 	movge	r8, #96	; 0x60
     e10:	b7d78004 	ldrblt	r8, [r7, r4]
     e14:	b19240b4 	ldrhlt	r4, [r2, r4]
     e18:	e3a03001 	mov	r3, #1
     e1c:	e59d2004 	ldr	r2, [sp, #4]
     e20:	e1a01113 	lsl	r1, r3, r1
     e24:	e1a0bc13 	lsl	fp, r3, ip
     e28:	e0617f01 	rsb	r7, r1, r1, lsl #30
     e2c:	e08b3a30 	add	r3, fp, r0, lsr sl
     e30:	e1a07107 	lsl	r7, r7, #2
     e34:	e0613003 	rsb	r3, r1, r3
     e38:	e0823103 	add	r3, r2, r3, lsl #2
     e3c:	e1a0200b 	mov	r2, fp
     e40:	e0522001 	subs	r2, r2, r1
     e44:	e5c38000 	strb	r8, [r3]
     e48:	e5c36001 	strb	r6, [r3, #1]
     e4c:	e1c340b2 	strh	r4, [r3, #2]
     e50:	e0833007 	add	r3, r3, r7
     e54:	1afffff9 	bne	e40 <zlib_inflate_table+0x2ac>
     e58:	e2492001 	sub	r2, r9, #1
     e5c:	e3a04001 	mov	r4, #1
     e60:	e1a03214 	lsl	r3, r4, r2
     e64:	e1130000 	tst	r3, r0
     e68:	0a000002 	beq	e78 <zlib_inflate_table+0x2e4>
     e6c:	e1a030a3 	lsr	r3, r3, #1
     e70:	e1100003 	tst	r0, r3
     e74:	1afffffc 	bne	e6c <zlib_inflate_table+0x2d8>
     e78:	e3530000 	cmp	r3, #0
     e7c:	e28d7070 	add	r7, sp, #112	; 0x70
     e80:	12431001 	subne	r1, r3, #1
     e84:	01a00003 	moveq	r0, r3
     e88:	10010000 	andne	r0, r1, r0
     e8c:	e0871089 	add	r1, r7, r9, lsl #1
     e90:	10800003 	addne	r0, r0, r3
     e94:	e15134b0 	ldrh	r3, [r1, #-64]	; 0xffffffc0
     e98:	e2433001 	sub	r3, r3, #1
     e9c:	e6ff3073 	uxth	r3, r3
     ea0:	e3530000 	cmp	r3, #0
     ea4:	e14134b0 	strh	r3, [r1, #-64]	; 0xffffffc0
     ea8:	1a000006 	bne	ec8 <zlib_inflate_table+0x334>
     eac:	e1590005 	cmp	r9, r5
     eb0:	0a000059 	beq	101c <zlib_inflate_table+0x488>
     eb4:	e59d6000 	ldr	r6, [sp]
     eb8:	e59d7018 	ldr	r7, [sp, #24]
     ebc:	e1d630b2 	ldrh	r3, [r6, #2]
     ec0:	e1a03083 	lsl	r3, r3, #1
     ec4:	e19790b3 	ldrh	r9, [r7, r3]
     ec8:	e59d1008 	ldr	r1, [sp, #8]
     ecc:	e1590001 	cmp	r9, r1
     ed0:	9a00004d 	bls	100c <zlib_inflate_table+0x478>
     ed4:	e59d2020 	ldr	r2, [sp, #32]
     ed8:	e59d301c 	ldr	r3, [sp, #28]
     edc:	e0004002 	and	r4, r0, r2
     ee0:	e1540003 	cmp	r4, r3
     ee4:	0a000048 	beq	100c <zlib_inflate_table+0x478>
     ee8:	e59d7004 	ldr	r7, [sp, #4]
     eec:	e35a0000 	cmp	sl, #0
     ef0:	e59d6008 	ldr	r6, [sp, #8]
     ef4:	e3a02001 	mov	r2, #1
     ef8:	01a0a006 	moveq	sl, r6
     efc:	e087710b 	add	r7, r7, fp, lsl #2
     f00:	e1590005 	cmp	r9, r5
     f04:	e06ac009 	rsb	ip, sl, r9
     f08:	e58d7004 	str	r7, [sp, #4]
     f0c:	e1a0100c 	mov	r1, ip
     f10:	e1a03c12 	lsl	r3, r2, ip
     f14:	2a000012 	bcs	f64 <zlib_inflate_table+0x3d0>
     f18:	e1a06219 	lsl	r6, r9, r2
     f1c:	e28d7070 	add	r7, sp, #112	; 0x70
     f20:	e0872006 	add	r2, r7, r6
     f24:	e15224b0 	ldrh	r2, [r2, #-64]	; 0xffffffc0
     f28:	e0623003 	rsb	r3, r2, r3
     f2c:	e3530000 	cmp	r3, #0
     f30:	da00000b 	ble	f64 <zlib_inflate_table+0x3d0>
     f34:	e28d2030 	add	r2, sp, #48	; 0x30
     f38:	e0826006 	add	r6, r2, r6
     f3c:	ea000003 	b	f50 <zlib_inflate_table+0x3bc>
     f40:	e1f620b2 	ldrh	r2, [r6, #2]!
     f44:	e0623003 	rsb	r3, r2, r3
     f48:	e3530000 	cmp	r3, #0
     f4c:	da000004 	ble	f64 <zlib_inflate_table+0x3d0>
     f50:	e28cc001 	add	ip, ip, #1
     f54:	e1a03083 	lsl	r3, r3, #1
     f58:	e08a200c 	add	r2, sl, ip
     f5c:	e1520005 	cmp	r2, r5
     f60:	3afffff6 	bcc	f40 <zlib_inflate_table+0x3ac>
     f64:	e59d3010 	ldr	r3, [sp, #16]
     f68:	e3a06001 	mov	r6, #1
     f6c:	e30025af 	movw	r2, #1455	; 0x5af
     f70:	e0833c16 	add	r3, r3, r6, lsl ip
     f74:	e58d3010 	str	r3, [sp, #16]
     f78:	e59d7010 	ldr	r7, [sp, #16]
     f7c:	e59d3024 	ldr	r3, [sp, #36]	; 0x24
     f80:	e1570002 	cmp	r7, r2
     f84:	93a03000 	movls	r3, #0
     f88:	82033001 	andhi	r3, r3, #1
     f8c:	e3530000 	cmp	r3, #0
     f90:	1a00001f 	bne	1014 <zlib_inflate_table+0x480>
     f94:	e59d300c 	ldr	r3, [sp, #12]
     f98:	e58d401c 	str	r4, [sp, #28]
     f9c:	e59d6008 	ldr	r6, [sp, #8]
     fa0:	e5932000 	ldr	r2, [r3]
     fa4:	e1a03104 	lsl	r3, r4, #2
     fa8:	e59d7004 	ldr	r7, [sp, #4]
     fac:	e7c2c104 	strb	ip, [r2, r4, lsl #2]
     fb0:	e59d400c 	ldr	r4, [sp, #12]
     fb4:	e5942000 	ldr	r2, [r4]
     fb8:	e0822003 	add	r2, r2, r3
     fbc:	e5c26001 	strb	r6, [r2, #1]
     fc0:	e5942000 	ldr	r2, [r4]
     fc4:	e0624007 	rsb	r4, r2, r7
     fc8:	e0823003 	add	r3, r2, r3
     fcc:	e1a04144 	asr	r4, r4, #2
     fd0:	e1c340b2 	strh	r4, [r3, #2]
     fd4:	eaffff80 	b	ddc <zlib_inflate_table+0x248>
     fd8:	e3e00000 	mvn	r0, #0
     fdc:	eaffff1e 	b	c5c <zlib_inflate_table+0xc8>
     fe0:	e1550006 	cmp	r5, r6
     fe4:	31a06005 	movcc	r6, r5
     fe8:	e1a0900b 	mov	r9, fp
     fec:	e156000b 	cmp	r6, fp
     ff0:	21a0b006 	movcs	fp, r6
     ff4:	eaffff26 	b	c94 <zlib_inflate_table+0x100>
     ff8:	e3a02013 	mov	r2, #19
     ffc:	e58dc02c 	str	ip, [sp, #44]	; 0x2c
    1000:	e58dc028 	str	ip, [sp, #40]	; 0x28
    1004:	e58d2014 	str	r2, [sp, #20]
    1008:	eaffff58 	b	d70 <zlib_inflate_table+0x1dc>
    100c:	e06a1009 	rsb	r1, sl, r9
    1010:	eaffff71 	b	ddc <zlib_inflate_table+0x248>
    1014:	e3a00001 	mov	r0, #1
    1018:	eaffff0f 	b	c5c <zlib_inflate_table+0xc8>
    101c:	e3500000 	cmp	r0, #0
    1020:	e59db008 	ldr	fp, [sp, #8]
    1024:	0a000021 	beq	10b0 <zlib_inflate_table+0x51c>
    1028:	e59d9004 	ldr	r9, [sp, #4]
    102c:	e6ef807b 	uxtb	r8, fp
    1030:	e3a07040 	mov	r7, #64	; 0x40
    1034:	e3a05001 	mov	r5, #1
    1038:	e35a0000 	cmp	sl, #0
    103c:	0a000024 	beq	10d4 <zlib_inflate_table+0x540>
    1040:	e59dc020 	ldr	ip, [sp, #32]
    1044:	e59d401c 	ldr	r4, [sp, #28]
    1048:	e000100c 	and	r1, r0, ip
    104c:	e1540001 	cmp	r4, r1
    1050:	0a00001f 	beq	10d4 <zlib_inflate_table+0x540>
    1054:	e59d600c 	ldr	r6, [sp, #12]
    1058:	e3a0a000 	mov	sl, #0
    105c:	e1a0400a 	mov	r4, sl
    1060:	e24b2001 	sub	r2, fp, #1
    1064:	e5969000 	ldr	r9, [r6]
    1068:	e1a06008 	mov	r6, r8
    106c:	e1a04430 	lsr	r4, r0, r4
    1070:	e1a01215 	lsl	r1, r5, r2
    1074:	e089c104 	add	ip, r9, r4, lsl #2
    1078:	e1110000 	tst	r1, r0
    107c:	e7c97104 	strb	r7, [r9, r4, lsl #2]
    1080:	e5cc6001 	strb	r6, [ip, #1]
    1084:	e1cc30b2 	strh	r3, [ip, #2]
    1088:	0a000002 	beq	1098 <zlib_inflate_table+0x504>
    108c:	e1a010a1 	lsr	r1, r1, #1
    1090:	e1100001 	tst	r0, r1
    1094:	1afffffc 	bne	108c <zlib_inflate_table+0x4f8>
    1098:	e3510000 	cmp	r1, #0
    109c:	0a000003 	beq	10b0 <zlib_inflate_table+0x51c>
    10a0:	e241c001 	sub	ip, r1, #1
    10a4:	e00c0000 	and	r0, ip, r0
    10a8:	e0900001 	adds	r0, r0, r1
    10ac:	1affffe1 	bne	1038 <zlib_inflate_table+0x4a4>
    10b0:	e59dc00c 	ldr	ip, [sp, #12]
    10b4:	e3a00000 	mov	r0, #0
    10b8:	e59d1010 	ldr	r1, [sp, #16]
    10bc:	e59d4090 	ldr	r4, [sp, #144]	; 0x90
    10c0:	e59c3000 	ldr	r3, [ip]
    10c4:	e0833101 	add	r3, r3, r1, lsl #2
    10c8:	e58c3000 	str	r3, [ip]
    10cc:	e584b000 	str	fp, [r4]
    10d0:	eafffee1 	b	c5c <zlib_inflate_table+0xc8>
    10d4:	e1a0400a 	mov	r4, sl
    10d8:	eaffffe3 	b	106c <zlib_inflate_table+0x4d8>
    10dc:	e59f3028 	ldr	r3, [pc, #40]	; 110c <zlib_inflate_table+0x578>
    10e0:	e3a02c01 	mov	r2, #256	; 0x100
    10e4:	e58d2014 	str	r2, [sp, #20]
    10e8:	e08f3003 	add	r3, pc, r3
    10ec:	e2432c02 	sub	r2, r3, #512	; 0x200
    10f0:	e2433d07 	sub	r3, r3, #448	; 0x1c0
    10f4:	e2422002 	sub	r2, r2, #2
    10f8:	e2433002 	sub	r3, r3, #2
    10fc:	e58d202c 	str	r2, [sp, #44]	; 0x2c
    1100:	e58d3028 	str	r3, [sp, #40]	; 0x28
    1104:	eaffff19 	b	d70 <zlib_inflate_table+0x1dc>
    1108:	00004a70 	.word	0x00004a70
    110c:	000046e4 	.word	0x000046e4

00001110 <inflate_fast>:
    1110:	e92d0ff0 	push	{r4, r5, r6, r7, r8, r9, sl, fp}
    1114:	e24dd040 	sub	sp, sp, #64	; 0x40
    1118:	e590b01c 	ldr	fp, [r0, #28]
    111c:	e1a09000 	mov	r9, r0
    1120:	e3a03001 	mov	r3, #1
    1124:	e5906010 	ldr	r6, [r0, #16]
    1128:	e1a0c003 	mov	ip, r3
    112c:	e59b8024 	ldr	r8, [fp, #36]	; 0x24
    1130:	e590400c 	ldr	r4, [r0, #12]
    1134:	e59b7054 	ldr	r7, [fp, #84]	; 0x54
    1138:	e2465c01 	sub	r5, r6, #256	; 0x100
    113c:	e58d8014 	str	r8, [sp, #20]
    1140:	e2455001 	sub	r5, r5, #1
    1144:	e59b802c 	ldr	r8, [fp, #44]	; 0x2c
    1148:	e2444001 	sub	r4, r4, #1
    114c:	e59b0050 	ldr	r0, [fp, #80]	; 0x50
    1150:	e0611006 	rsb	r1, r1, r6
    1154:	e5992000 	ldr	r2, [r9]
    1158:	e1a07713 	lsl	r7, r3, r7
    115c:	e58d8010 	str	r8, [sp, #16]
    1160:	e0845005 	add	r5, r4, r5
    1164:	e59b8030 	ldr	r8, [fp, #48]	; 0x30
    1168:	e2477001 	sub	r7, r7, #1
    116c:	e1a00013 	lsl	r0, r3, r0
    1170:	e59b3028 	ldr	r3, [fp, #40]	; 0x28
    1174:	e2422001 	sub	r2, r2, #1
    1178:	e5996004 	ldr	r6, [r9, #4]
    117c:	e58d2000 	str	r2, [sp]
    1180:	e2400001 	sub	r0, r0, #1
    1184:	e2488001 	sub	r8, r8, #1
    1188:	e58d3028 	str	r3, [sp, #40]	; 0x28
    118c:	e58d000c 	str	r0, [sp, #12]
    1190:	e2466005 	sub	r6, r6, #5
    1194:	e58d7020 	str	r7, [sp, #32]
    1198:	e0841001 	add	r1, r4, r1
    119c:	e58d5004 	str	r5, [sp, #4]
    11a0:	e59d7014 	ldr	r7, [sp, #20]
    11a4:	e59d5010 	ldr	r5, [sp, #16]
    11a8:	e58d802c 	str	r8, [sp, #44]	; 0x2c
    11ac:	e59b3034 	ldr	r3, [fp, #52]	; 0x34
    11b0:	e59d8000 	ldr	r8, [sp]
    11b4:	e0855007 	add	r5, r5, r7
    11b8:	e59b2038 	ldr	r2, [fp, #56]	; 0x38
    11bc:	e59b0048 	ldr	r0, [fp, #72]	; 0x48
    11c0:	e59ba04c 	ldr	sl, [fp, #76]	; 0x4c
    11c4:	e0886006 	add	r6, r8, r6
    11c8:	e58d1024 	str	r1, [sp, #36]	; 0x24
    11cc:	e58d5030 	str	r5, [sp, #48]	; 0x30
    11d0:	e58d6008 	str	r6, [sp, #8]
    11d4:	e58db018 	str	fp, [sp, #24]
    11d8:	e58d901c 	str	r9, [sp, #28]
    11dc:	e352000e 	cmp	r2, #14
    11e0:	8a00000a 	bhi	1210 <inflate_fast+0x100>
    11e4:	e59d1000 	ldr	r1, [sp]
    11e8:	e2825008 	add	r5, r2, #8
    11ec:	e59d7000 	ldr	r7, [sp]
    11f0:	e5d16002 	ldrb	r6, [r1, #2]
    11f4:	e5d11001 	ldrb	r1, [r1, #1]
    11f8:	e2877002 	add	r7, r7, #2
    11fc:	e58d7000 	str	r7, [sp]
    1200:	e1a05516 	lsl	r5, r6, r5
    1204:	e0851211 	add	r1, r5, r1, lsl r2
    1208:	e2822010 	add	r2, r2, #16
    120c:	e0833001 	add	r3, r3, r1
    1210:	e59d800c 	ldr	r8, [sp, #12]
    1214:	e0031008 	and	r1, r3, r8
    1218:	e0805101 	add	r5, r0, r1, lsl #2
    121c:	e7d01101 	ldrb	r1, [r0, r1, lsl #2]
    1220:	e5d56001 	ldrb	r6, [r5, #1]
    1224:	e3510000 	cmp	r1, #0
    1228:	e1d550b2 	ldrh	r5, [r5, #2]
    122c:	e0662002 	rsb	r2, r6, r2
    1230:	e1a03633 	lsr	r3, r3, r6
    1234:	1a00000e 	bne	1274 <inflate_fast+0x164>
    1238:	ea00005c 	b	13b0 <inflate_fast+0x2a0>
    123c:	e3110040 	tst	r1, #64	; 0x40
    1240:	1a000065 	bne	13dc <inflate_fast+0x2cc>
    1244:	e1a0111c 	lsl	r1, ip, r1
    1248:	e2411001 	sub	r1, r1, #1
    124c:	e0031001 	and	r1, r3, r1
    1250:	e0815005 	add	r5, r1, r5
    1254:	e0807105 	add	r7, r0, r5, lsl #2
    1258:	e7d01105 	ldrb	r1, [r0, r5, lsl #2]
    125c:	e5d76001 	ldrb	r6, [r7, #1]
    1260:	e3510000 	cmp	r1, #0
    1264:	e1d750b2 	ldrh	r5, [r7, #2]
    1268:	e0662002 	rsb	r2, r6, r2
    126c:	e1a03633 	lsr	r3, r3, r6
    1270:	0a00004e 	beq	13b0 <inflate_fast+0x2a0>
    1274:	e3110010 	tst	r1, #16
    1278:	0affffef 	beq	123c <inflate_fast+0x12c>
    127c:	e211100f 	ands	r1, r1, #15
    1280:	e1a0b005 	mov	fp, r5
    1284:	0a00000d 	beq	12c0 <inflate_fast+0x1b0>
    1288:	e1510002 	cmp	r1, r2
    128c:	9a000005 	bls	12a8 <inflate_fast+0x198>
    1290:	e59d7000 	ldr	r7, [sp]
    1294:	e5d76001 	ldrb	r6, [r7, #1]
    1298:	e2877001 	add	r7, r7, #1
    129c:	e58d7000 	str	r7, [sp]
    12a0:	e0833216 	add	r3, r3, r6, lsl r2
    12a4:	e2822008 	add	r2, r2, #8
    12a8:	e1a0611c 	lsl	r6, ip, r1
    12ac:	e0612002 	rsb	r2, r1, r2
    12b0:	e2466001 	sub	r6, r6, #1
    12b4:	e0036006 	and	r6, r3, r6
    12b8:	e1a03133 	lsr	r3, r3, r1
    12bc:	e085b006 	add	fp, r5, r6
    12c0:	e352000e 	cmp	r2, #14
    12c4:	9a000050 	bls	140c <inflate_fast+0x2fc>
    12c8:	e59d1020 	ldr	r1, [sp, #32]
    12cc:	e0035001 	and	r5, r3, r1
    12d0:	e08a1105 	add	r1, sl, r5, lsl #2
    12d4:	e7da5105 	ldrb	r5, [sl, r5, lsl #2]
    12d8:	e5d16001 	ldrb	r6, [r1, #1]
    12dc:	e3150010 	tst	r5, #16
    12e0:	e1d110b2 	ldrh	r1, [r1, #2]
    12e4:	e0662002 	rsb	r2, r6, r2
    12e8:	e1a03633 	lsr	r3, r3, r6
    12ec:	0a00000c 	beq	1324 <inflate_fast+0x214>
    12f0:	ea000050 	b	1438 <inflate_fast+0x328>
    12f4:	e1a0551c 	lsl	r5, ip, r5
    12f8:	e2455001 	sub	r5, r5, #1
    12fc:	e0035005 	and	r5, r3, r5
    1300:	e0851001 	add	r1, r5, r1
    1304:	e08a7101 	add	r7, sl, r1, lsl #2
    1308:	e7da5101 	ldrb	r5, [sl, r1, lsl #2]
    130c:	e5d76001 	ldrb	r6, [r7, #1]
    1310:	e3150010 	tst	r5, #16
    1314:	e1d710b2 	ldrh	r1, [r7, #2]
    1318:	e0662002 	rsb	r2, r6, r2
    131c:	e1a03633 	lsr	r3, r3, r6
    1320:	1a000044 	bne	1438 <inflate_fast+0x328>
    1324:	e3150040 	tst	r5, #64	; 0x40
    1328:	0afffff1 	beq	12f4 <inflate_fast+0x1e4>
    132c:	e59f0410 	ldr	r0, [pc, #1040]	; 1744 <inflate_fast+0x634>
    1330:	e3a0101b 	mov	r1, #27
    1334:	e59db018 	ldr	fp, [sp, #24]
    1338:	e59d901c 	ldr	r9, [sp, #28]
    133c:	e08f0000 	add	r0, pc, r0
    1340:	e5890018 	str	r0, [r9, #24]
    1344:	e58b1000 	str	r1, [fp]
    1348:	e59d8004 	ldr	r8, [sp, #4]
    134c:	e1a001a2 	lsr	r0, r2, #3
    1350:	e59d5000 	ldr	r5, [sp]
    1354:	e3e0c000 	mvn	ip, #0
    1358:	e59d6008 	ldr	r6, [sp, #8]
    135c:	e0422180 	sub	r2, r2, r0, lsl #3
    1360:	e1540008 	cmp	r4, r8
    1364:	259d7004 	ldrcs	r7, [sp, #4]
    1368:	e0601005 	rsb	r1, r0, r5
    136c:	e2840001 	add	r0, r4, #1
    1370:	30644008 	rsbcc	r4, r4, r8
    1374:	e0615006 	rsb	r5, r1, r6
    1378:	e1c3321c 	bic	r3, r3, ip, lsl r2
    137c:	20644007 	rsbcs	r4, r4, r7
    1380:	e589000c 	str	r0, [r9, #12]
    1384:	e2844c01 	add	r4, r4, #256	; 0x100
    1388:	e2855005 	add	r5, r5, #5
    138c:	e2811001 	add	r1, r1, #1
    1390:	e2844001 	add	r4, r4, #1
    1394:	e8890022 	stm	r9, {r1, r5}
    1398:	e5894010 	str	r4, [r9, #16]
    139c:	e58b3034 	str	r3, [fp, #52]	; 0x34
    13a0:	e58b2038 	str	r2, [fp, #56]	; 0x38
    13a4:	e28dd040 	add	sp, sp, #64	; 0x40
    13a8:	e8bd0ff0 	pop	{r4, r5, r6, r7, r8, r9, sl, fp}
    13ac:	e12fff1e 	bx	lr
    13b0:	e5c45001 	strb	r5, [r4, #1]
    13b4:	e2844001 	add	r4, r4, #1
    13b8:	e59d5004 	ldr	r5, [sp, #4]
    13bc:	e59d6000 	ldr	r6, [sp]
    13c0:	e59d7008 	ldr	r7, [sp, #8]
    13c4:	e1540005 	cmp	r4, r5
    13c8:	31560007 	cmpcc	r6, r7
    13cc:	3affff82 	bcc	11dc <inflate_fast+0xcc>
    13d0:	e59db018 	ldr	fp, [sp, #24]
    13d4:	e59d901c 	ldr	r9, [sp, #28]
    13d8:	eaffffda 	b	1348 <inflate_fast+0x238>
    13dc:	e59db018 	ldr	fp, [sp, #24]
    13e0:	e3110020 	tst	r1, #32
    13e4:	13a0100b 	movne	r1, #11
    13e8:	e59d901c 	ldr	r9, [sp, #28]
    13ec:	158b1000 	strne	r1, [fp]
    13f0:	1affffd4 	bne	1348 <inflate_fast+0x238>
    13f4:	e59f034c 	ldr	r0, [pc, #844]	; 1748 <inflate_fast+0x638>
    13f8:	e3a0101b 	mov	r1, #27
    13fc:	e08f0000 	add	r0, pc, r0
    1400:	e5890018 	str	r0, [r9, #24]
    1404:	e58b1000 	str	r1, [fp]
    1408:	eaffffce 	b	1348 <inflate_fast+0x238>
    140c:	e59d8000 	ldr	r8, [sp]
    1410:	e2825008 	add	r5, r2, #8
    1414:	e5d86002 	ldrb	r6, [r8, #2]
    1418:	e5d81001 	ldrb	r1, [r8, #1]
    141c:	e2888002 	add	r8, r8, #2
    1420:	e58d8000 	str	r8, [sp]
    1424:	e1a05516 	lsl	r5, r6, r5
    1428:	e0851211 	add	r1, r5, r1, lsl r2
    142c:	e2822010 	add	r2, r2, #16
    1430:	e0833001 	add	r3, r3, r1
    1434:	eaffffa3 	b	12c8 <inflate_fast+0x1b8>
    1438:	e205500f 	and	r5, r5, #15
    143c:	e1550002 	cmp	r5, r2
    1440:	9a00000e 	bls	1480 <inflate_fast+0x370>
    1444:	e59d6000 	ldr	r6, [sp]
    1448:	e5d67001 	ldrb	r7, [r6, #1]
    144c:	e2826008 	add	r6, r2, #8
    1450:	e1550006 	cmp	r5, r6
    1454:	859d8000 	ldrhi	r8, [sp]
    1458:	e0833217 	add	r3, r3, r7, lsl r2
    145c:	959d7000 	ldrls	r7, [sp]
    1460:	85d87002 	ldrbhi	r7, [r8, #2]
    1464:	91a02006 	movls	r2, r6
    1468:	82822010 	addhi	r2, r2, #16
    146c:	82888002 	addhi	r8, r8, #2
    1470:	92877001 	addls	r7, r7, #1
    1474:	858d8000 	strhi	r8, [sp]
    1478:	958d7000 	strls	r7, [sp]
    147c:	80833617 	addhi	r3, r3, r7, lsl r6
    1480:	e1a0751c 	lsl	r7, ip, r5
    1484:	e59d8024 	ldr	r8, [sp, #36]	; 0x24
    1488:	e0652002 	rsb	r2, r5, r2
    148c:	e2477001 	sub	r7, r7, #1
    1490:	e0037007 	and	r7, r3, r7
    1494:	e0686004 	rsb	r6, r8, r4
    1498:	e0877001 	add	r7, r7, r1
    149c:	e1a03533 	lsr	r3, r3, r5
    14a0:	e1570006 	cmp	r7, r6
    14a4:	9a00002c 	bls	155c <inflate_fast+0x44c>
    14a8:	e59d1028 	ldr	r1, [sp, #40]	; 0x28
    14ac:	e0668007 	rsb	r8, r6, r7
    14b0:	e1510008 	cmp	r1, r8
    14b4:	3a00009a 	bcc	1724 <inflate_fast+0x614>
    14b8:	e59d5010 	ldr	r5, [sp, #16]
    14bc:	e3550000 	cmp	r5, #0
    14c0:	1a00005a 	bne	1630 <inflate_fast+0x520>
    14c4:	e59d6014 	ldr	r6, [sp, #20]
    14c8:	e15b0008 	cmp	fp, r8
    14cc:	e59d102c 	ldr	r1, [sp, #44]	; 0x2c
    14d0:	e0689006 	rsb	r9, r8, r6
    14d4:	e0819009 	add	r9, r1, r9
    14d8:	8a000087 	bhi	16fc <inflate_fast+0x5ec>
    14dc:	e1a08004 	mov	r8, r4
    14e0:	e35b0002 	cmp	fp, #2
    14e4:	e1a01009 	mov	r1, r9
    14e8:	e1a04008 	mov	r4, r8
    14ec:	83a05000 	movhi	r5, #0
    14f0:	858d0034 	strhi	r0, [sp, #52]	; 0x34
    14f4:	9a00000e 	bls	1534 <inflate_fast+0x424>
    14f8:	e5d17001 	ldrb	r7, [r1, #1]
    14fc:	e0896005 	add	r6, r9, r5
    1500:	e24bb003 	sub	fp, fp, #3
    1504:	e0880005 	add	r0, r8, r5
    1508:	e35b0002 	cmp	fp, #2
    150c:	e2855003 	add	r5, r5, #3
    1510:	e5c47001 	strb	r7, [r4, #1]
    1514:	e5d17002 	ldrb	r7, [r1, #2]
    1518:	e2811003 	add	r1, r1, #3
    151c:	e5c47002 	strb	r7, [r4, #2]
    1520:	e2844003 	add	r4, r4, #3
    1524:	e5d66003 	ldrb	r6, [r6, #3]
    1528:	e5c06003 	strb	r6, [r0, #3]
    152c:	8afffff1 	bhi	14f8 <inflate_fast+0x3e8>
    1530:	e59d0034 	ldr	r0, [sp, #52]	; 0x34
    1534:	e35b0000 	cmp	fp, #0
    1538:	0affff9e 	beq	13b8 <inflate_fast+0x2a8>
    153c:	e5d15001 	ldrb	r5, [r1, #1]
    1540:	e35b0002 	cmp	fp, #2
    1544:	e5c45001 	strb	r5, [r4, #1]
    1548:	1a000028 	bne	15f0 <inflate_fast+0x4e0>
    154c:	e5d11002 	ldrb	r1, [r1, #2]
    1550:	e5c41002 	strb	r1, [r4, #2]
    1554:	e2844002 	add	r4, r4, #2
    1558:	eaffff96 	b	13b8 <inflate_fast+0x2a8>
    155c:	e3140001 	tst	r4, #1
    1560:	e0679004 	rsb	r9, r7, r4
    1564:	05d91001 	ldrbeq	r1, [r9, #1]
    1568:	024bb001 	subeq	fp, fp, #1
    156c:	02899001 	addeq	r9, r9, #1
    1570:	05c41001 	strbeq	r1, [r4, #1]
    1574:	02844001 	addeq	r4, r4, #1
    1578:	e3570002 	cmp	r7, #2
    157c:	e2448001 	sub	r8, r4, #1
    1580:	9a00001c 	bls	15f8 <inflate_fast+0x4e8>
    1584:	e1a070ab 	lsr	r7, fp, #1
    1588:	e1dd63ba 	ldrh	r6, [sp, #58]	; 0x3a
    158c:	e2499001 	sub	r9, r9, #1
    1590:	e58db03c 	str	fp, [sp, #60]	; 0x3c
    1594:	e1a04009 	mov	r4, r9
    1598:	e1a01007 	mov	r1, r7
    159c:	e1a05008 	mov	r5, r8
    15a0:	e58d7034 	str	r7, [sp, #52]	; 0x34
    15a4:	e5f4b002 	ldrb	fp, [r4, #2]!
    15a8:	e2511001 	subs	r1, r1, #1
    15ac:	e5d47001 	ldrb	r7, [r4, #1]
    15b0:	e7c7601b 	bfi	r6, fp, #0, #8
    15b4:	e7cf6417 	bfi	r6, r7, #8, #8
    15b8:	e1e560b2 	strh	r6, [r5, #2]!
    15bc:	1afffff8 	bne	15a4 <inflate_fast+0x494>
    15c0:	e59d4034 	ldr	r4, [sp, #52]	; 0x34
    15c4:	e59db03c 	ldr	fp, [sp, #60]	; 0x3c
    15c8:	e1cd63ba 	strh	r6, [sp, #58]	; 0x3a
    15cc:	e1a01084 	lsl	r1, r4, #1
    15d0:	e0884001 	add	r4, r8, r1
    15d4:	e0899001 	add	r9, r9, r1
    15d8:	e2844001 	add	r4, r4, #1
    15dc:	e2899001 	add	r9, r9, #1
    15e0:	e31b0001 	tst	fp, #1
    15e4:	0affff73 	beq	13b8 <inflate_fast+0x2a8>
    15e8:	e5d91001 	ldrb	r1, [r9, #1]
    15ec:	e5c41001 	strb	r1, [r4, #1]
    15f0:	e2844001 	add	r4, r4, #1
    15f4:	eaffff6f 	b	13b8 <inflate_fast+0x2a8>
    15f8:	e15450b1 	ldrh	r5, [r4, #-1]
    15fc:	e3570001 	cmp	r7, #1
    1600:	e1a060ab 	lsr	r6, fp, #1
    1604:	e1a04008 	mov	r4, r8
    1608:	01a01425 	lsreq	r1, r5, #8
    160c:	07c75011 	bfieq	r5, r1, #0, #8
    1610:	e1a01006 	mov	r1, r6
    1614:	06ff5075 	uxtheq	r5, r5
    1618:	e2511001 	subs	r1, r1, #1
    161c:	e1e450b2 	strh	r5, [r4, #2]!
    1620:	1afffffc 	bne	1618 <inflate_fast+0x508>
    1624:	e0884086 	add	r4, r8, r6, lsl #1
    1628:	e2844001 	add	r4, r4, #1
    162c:	eaffffeb 	b	15e0 <inflate_fast+0x4d0>
    1630:	e59d5010 	ldr	r5, [sp, #16]
    1634:	e1550008 	cmp	r5, r8
    1638:	2a00001f 	bcs	16bc <inflate_fast+0x5ac>
    163c:	e59d1030 	ldr	r1, [sp, #48]	; 0x30
    1640:	e0656008 	rsb	r6, r5, r8
    1644:	e59d502c 	ldr	r5, [sp, #44]	; 0x2c
    1648:	e15b0006 	cmp	fp, r6
    164c:	e58d6034 	str	r6, [sp, #52]	; 0x34
    1650:	e0689001 	rsb	r9, r8, r1
    1654:	e0859009 	add	r9, r5, r9
    1658:	9affff9f 	bls	14dc <inflate_fast+0x3cc>
    165c:	e066b00b 	rsb	fp, r6, fp
    1660:	e1a01004 	mov	r1, r4
    1664:	e0896006 	add	r6, r9, r6
    1668:	e5f95001 	ldrb	r5, [r9, #1]!
    166c:	e1590006 	cmp	r9, r6
    1670:	e5e15001 	strb	r5, [r1, #1]!
    1674:	1afffffb 	bne	1668 <inflate_fast+0x558>
    1678:	e59d6010 	ldr	r6, [sp, #16]
    167c:	e59d1034 	ldr	r1, [sp, #52]	; 0x34
    1680:	e156000b 	cmp	r6, fp
    1684:	e0848001 	add	r8, r4, r1
    1688:	2a000023 	bcs	171c <inflate_fast+0x60c>
    168c:	e59d4010 	ldr	r4, [sp, #16]
    1690:	e1a06008 	mov	r6, r8
    1694:	e59d102c 	ldr	r1, [sp, #44]	; 0x2c
    1698:	e064b00b 	rsb	fp, r4, fp
    169c:	e0885004 	add	r5, r8, r4
    16a0:	e5f14001 	ldrb	r4, [r1, #1]!
    16a4:	e5e64001 	strb	r4, [r6, #1]!
    16a8:	e1560005 	cmp	r6, r5
    16ac:	1afffffb 	bne	16a0 <inflate_fast+0x590>
    16b0:	e1a08006 	mov	r8, r6
    16b4:	e0679006 	rsb	r9, r7, r6
    16b8:	eaffff88 	b	14e0 <inflate_fast+0x3d0>
    16bc:	e59d5010 	ldr	r5, [sp, #16]
    16c0:	e15b0008 	cmp	fp, r8
    16c4:	e59d602c 	ldr	r6, [sp, #44]	; 0x2c
    16c8:	e0689005 	rsb	r9, r8, r5
    16cc:	e0869009 	add	r9, r6, r9
    16d0:	9affff81 	bls	14dc <inflate_fast+0x3cc>
    16d4:	e068b00b 	rsb	fp, r8, fp
    16d8:	e0896008 	add	r6, r9, r8
    16dc:	e1a01004 	mov	r1, r4
    16e0:	e5f95001 	ldrb	r5, [r9, #1]!
    16e4:	e1590006 	cmp	r9, r6
    16e8:	e5e15001 	strb	r5, [r1, #1]!
    16ec:	1afffffb 	bne	16e0 <inflate_fast+0x5d0>
    16f0:	e0848008 	add	r8, r4, r8
    16f4:	e0679008 	rsb	r9, r7, r8
    16f8:	eaffff78 	b	14e0 <inflate_fast+0x3d0>
    16fc:	e068b00b 	rsb	fp, r8, fp
    1700:	e0896008 	add	r6, r9, r8
    1704:	e1a01004 	mov	r1, r4
    1708:	e5f95001 	ldrb	r5, [r9, #1]!
    170c:	e1590006 	cmp	r9, r6
    1710:	e5e15001 	strb	r5, [r1, #1]!
    1714:	1afffffb 	bne	1708 <inflate_fast+0x5f8>
    1718:	eafffff4 	b	16f0 <inflate_fast+0x5e0>
    171c:	e59d902c 	ldr	r9, [sp, #44]	; 0x2c
    1720:	eaffff6e 	b	14e0 <inflate_fast+0x3d0>
    1724:	e59f0020 	ldr	r0, [pc, #32]	; 174c <inflate_fast+0x63c>
    1728:	e3a0101b 	mov	r1, #27
    172c:	e59db018 	ldr	fp, [sp, #24]
    1730:	e59d901c 	ldr	r9, [sp, #28]
    1734:	e08f0000 	add	r0, pc, r0
    1738:	e5890018 	str	r0, [r9, #24]
    173c:	e58b1000 	str	r1, [fp]
    1740:	eaffff00 	b	1348 <inflate_fast+0x238>
    1744:	00004ee0 	.word	0x00004ee0
    1748:	00004e38 	.word	0x00004e38
    174c:	00004ac8 	.word	0x00004ac8

00001750 <zlib_inflate_workspacesize>:
    1750:	e30a052c 	movw	r0, #42284	; 0xa52c
    1754:	e12fff1e 	bx	lr

00001758 <zlib_inflateReset>:
    1758:	e2501000 	subs	r1, r0, #0
    175c:	e92d0030 	push	{r4, r5}
    1760:	0a00001d 	beq	17dc <zlib_inflateReset+0x84>
    1764:	e591301c 	ldr	r3, [r1, #28]
    1768:	e3530000 	cmp	r3, #0
    176c:	0a00001a 	beq	17dc <zlib_inflateReset+0x84>
    1770:	e3a02000 	mov	r2, #0
    1774:	e3a04001 	mov	r4, #1
    1778:	e583201c 	str	r2, [r3, #28]
    177c:	e283ce52 	add	ip, r3, #1312	; 0x520
    1780:	e5814028 	str	r4, [r1, #40]	; 0x28
    1784:	e1a00002 	mov	r0, r2
    1788:	e5812014 	str	r2, [r1, #20]
    178c:	e28cc00c 	add	ip, ip, #12
    1790:	e5812008 	str	r2, [r1, #8]
    1794:	e3a05902 	mov	r5, #32768	; 0x8000
    1798:	e5812018 	str	r2, [r1, #24]
    179c:	e5931020 	ldr	r1, [r3, #32]
    17a0:	e5832000 	str	r2, [r3]
    17a4:	e5832004 	str	r2, [r3, #4]
    17a8:	e583200c 	str	r2, [r3, #12]
    17ac:	e1a04114 	lsl	r4, r4, r1
    17b0:	e5832034 	str	r2, [r3, #52]	; 0x34
    17b4:	e5832038 	str	r2, [r3, #56]	; 0x38
    17b8:	e583202c 	str	r2, [r3, #44]	; 0x2c
    17bc:	e5832028 	str	r2, [r3, #40]	; 0x28
    17c0:	e5834024 	str	r4, [r3, #36]	; 0x24
    17c4:	e583c068 	str	ip, [r3, #104]	; 0x68
    17c8:	e583c04c 	str	ip, [r3, #76]	; 0x4c
    17cc:	e583c048 	str	ip, [r3, #72]	; 0x48
    17d0:	e5835014 	str	r5, [r3, #20]
    17d4:	e8bd0030 	pop	{r4, r5}
    17d8:	e12fff1e 	bx	lr
    17dc:	e3e00001 	mvn	r0, #1
    17e0:	eafffffb 	b	17d4 <zlib_inflateReset+0x7c>

000017e4 <zlib_inflateInit2>:
    17e4:	e2503000 	subs	r3, r0, #0
    17e8:	0a000013 	beq	183c <zlib_inflateInit2+0x58>
    17ec:	e3510000 	cmp	r1, #0
    17f0:	e3a00000 	mov	r0, #0
    17f4:	e5830018 	str	r0, [r3, #24]
    17f8:	a1a00241 	asrge	r0, r1, #4
    17fc:	e5932020 	ldr	r2, [r3, #32]
    1800:	b2611000 	rsblt	r1, r1, #0
    1804:	a2800001 	addge	r0, r0, #1
    1808:	e583201c 	str	r2, [r3, #28]
    180c:	b5820008 	strlt	r0, [r2, #8]
    1810:	a5820008 	strge	r0, [r2, #8]
    1814:	e2410008 	sub	r0, r1, #8
    1818:	e3500007 	cmp	r0, #7
    181c:	8a000006 	bhi	183c <zlib_inflateInit2+0x58>
    1820:	e5821020 	str	r1, [r2, #32]
    1824:	e1a00003 	mov	r0, r3
    1828:	e5933020 	ldr	r3, [r3, #32]
    182c:	e2833c25 	add	r3, r3, #9472	; 0x2500
    1830:	e283302c 	add	r3, r3, #44	; 0x2c
    1834:	e5823030 	str	r3, [r2, #48]	; 0x30
    1838:	eaffffc6 	b	1758 <zlib_inflateReset>
    183c:	e3e00001 	mvn	r0, #1
    1840:	e12fff1e 	bx	lr

00001844 <zlib_inflate>:
    1844:	e92d4ff0 	push	{r4, r5, r6, r7, r8, r9, sl, fp, lr}
    1848:	e2507000 	subs	r7, r0, #0
    184c:	e24dd04c 	sub	sp, sp, #76	; 0x4c
    1850:	e58d1024 	str	r1, [sp, #36]	; 0x24
    1854:	0a00042e 	beq	2914 <zlib_inflate+0x10d0>
    1858:	e597a01c 	ldr	sl, [r7, #28]
    185c:	e35a0000 	cmp	sl, #0
    1860:	0a00042b 	beq	2914 <zlib_inflate+0x10d0>
    1864:	e597c000 	ldr	ip, [r7]
    1868:	e35c0000 	cmp	ip, #0
    186c:	0a000425 	beq	2908 <zlib_inflate+0x10c4>
    1870:	e59a3000 	ldr	r3, [sl]
    1874:	e3a04000 	mov	r4, #0
    1878:	e58d400c 	str	r4, [sp, #12]
    187c:	e59f2f50 	ldr	r2, [pc, #3920]	; 27d4 <zlib_inflate+0xf90>
    1880:	e353000b 	cmp	r3, #11
    1884:	e59a8034 	ldr	r8, [sl, #52]	; 0x34
    1888:	03a0300c 	moveq	r3, #12
    188c:	e59a6038 	ldr	r6, [sl, #56]	; 0x38
    1890:	058a3000 	streq	r3, [sl]
    1894:	e08f2002 	add	r2, pc, r2
    1898:	e5974010 	ldr	r4, [r7, #16]
    189c:	e2822d26 	add	r2, r2, #2432	; 0x980
    18a0:	0597c000 	ldreq	ip, [r7]
    18a4:	e58d7010 	str	r7, [sp, #16]
    18a8:	e58d4008 	str	r4, [sp, #8]
    18ac:	e5974004 	ldr	r4, [r7, #4]
    18b0:	e59d9008 	ldr	r9, [sp, #8]
    18b4:	e58d2018 	str	r2, [sp, #24]
    18b8:	e58d401c 	str	r4, [sp, #28]
    18bc:	e59f4f14 	ldr	r4, [pc, #3860]	; 27d8 <zlib_inflate+0xf94>
    18c0:	e1a0b009 	mov	fp, r9
    18c4:	e59d501c 	ldr	r5, [sp, #28]
    18c8:	e08f4004 	add	r4, pc, r4
    18cc:	e58d4014 	str	r4, [sp, #20]
    18d0:	e2824024 	add	r4, r2, #36	; 0x24
    18d4:	e58d4030 	str	r4, [sp, #48]	; 0x30
    18d8:	e597400c 	ldr	r4, [r7, #12]
    18dc:	e1a0700c 	mov	r7, ip
    18e0:	e58d4020 	str	r4, [sp, #32]
    18e4:	e59d4014 	ldr	r4, [sp, #20]
    18e8:	e2844c01 	add	r4, r4, #256	; 0x100
    18ec:	e58d402c 	str	r4, [sp, #44]	; 0x2c
    18f0:	e59f4ee4 	ldr	r4, [pc, #3812]	; 27dc <zlib_inflate+0xf98>
    18f4:	e08f4004 	add	r4, pc, r4
    18f8:	e58d4028 	str	r4, [sp, #40]	; 0x28
    18fc:	e353001c 	cmp	r3, #28
    1900:	908ff103 	addls	pc, pc, r3, lsl #2
    1904:	ea0001b2 	b	1fd4 <zlib_inflate+0x790>
    1908:	ea0001b6 	b	1fe8 <zlib_inflate+0x7a4>
    190c:	ea0001b0 	b	1fd4 <zlib_inflate+0x790>
    1910:	ea0001af 	b	1fd4 <zlib_inflate+0x790>
    1914:	ea0001ae 	b	1fd4 <zlib_inflate+0x790>
    1918:	ea0001ad 	b	1fd4 <zlib_inflate+0x790>
    191c:	ea0001ac 	b	1fd4 <zlib_inflate+0x790>
    1920:	ea0001ab 	b	1fd4 <zlib_inflate+0x790>
    1924:	ea0001aa 	b	1fd4 <zlib_inflate+0x790>
    1928:	ea0001a9 	b	1fd4 <zlib_inflate+0x790>
    192c:	ea000012 	b	197c <zlib_inflate+0x138>
    1930:	ea00002e 	b	19f0 <zlib_inflate+0x1ac>
    1934:	ea000036 	b	1a14 <zlib_inflate+0x1d0>
    1938:	ea000038 	b	1a20 <zlib_inflate+0x1dc>
    193c:	ea000100 	b	1d44 <zlib_inflate+0x500>
    1940:	ea00011f 	b	1dc4 <zlib_inflate+0x580>
    1944:	ea000139 	b	1e30 <zlib_inflate+0x5ec>
    1948:	ea00015d 	b	1ec4 <zlib_inflate+0x680>
    194c:	ea000338 	b	2634 <zlib_inflate+0xdf0>
    1950:	ea000367 	b	26f4 <zlib_inflate+0xeb0>
    1954:	ea000051 	b	1aa0 <zlib_inflate+0x25c>
    1958:	ea00006b 	b	1b0c <zlib_inflate+0x2c8>
    195c:	ea0000bf 	b	1c60 <zlib_inflate+0x41c>
    1960:	ea0000cc 	b	1c98 <zlib_inflate+0x454>
    1964:	ea000287 	b	2388 <zlib_inflate+0xb44>
    1968:	ea000294 	b	23c0 <zlib_inflate+0xb7c>
    196c:	ea000198 	b	1fd4 <zlib_inflate+0x790>
    1970:	ea0001bd 	b	206c <zlib_inflate+0x828>
    1974:	ea000277 	b	2358 <zlib_inflate+0xb14>
    1978:	ea00027f 	b	237c <zlib_inflate+0xb38>
    197c:	e356001f 	cmp	r6, #31
    1980:	8a00000c 	bhi	19b8 <zlib_inflate+0x174>
    1984:	e3550000 	cmp	r5, #0
    1988:	0a0003c4 	beq	28a0 <zlib_inflate+0x105c>
    198c:	e1a03007 	mov	r3, r7
    1990:	ea000001 	b	199c <zlib_inflate+0x158>
    1994:	e3550000 	cmp	r5, #0
    1998:	0a0003c0 	beq	28a0 <zlib_inflate+0x105c>
    199c:	e4d32001 	ldrb	r2, [r3], #1
    19a0:	e2455001 	sub	r5, r5, #1
    19a4:	e1a07003 	mov	r7, r3
    19a8:	e0888612 	add	r8, r8, r2, lsl r6
    19ac:	e2866008 	add	r6, r6, #8
    19b0:	e356001f 	cmp	r6, #31
    19b4:	9afffff6 	bls	1994 <zlib_inflate+0x150>
    19b8:	e1a01c28 	lsr	r1, r8, #24
    19bc:	e1a03428 	lsr	r3, r8, #8
    19c0:	e59dc010 	ldr	ip, [sp, #16]
    19c4:	e0811c08 	add	r1, r1, r8, lsl #24
    19c8:	e2033cff 	and	r3, r3, #65280	; 0xff00
    19cc:	e2082cff 	and	r2, r8, #65280	; 0xff00
    19d0:	e0813003 	add	r3, r1, r3
    19d4:	e3a08000 	mov	r8, #0
    19d8:	e0833402 	add	r3, r3, r2, lsl #8
    19dc:	e1a06008 	mov	r6, r8
    19e0:	e3a0200a 	mov	r2, #10
    19e4:	e58a3018 	str	r3, [sl, #24]
    19e8:	e58c3028 	str	r3, [ip, #40]	; 0x28
    19ec:	e58a2000 	str	r2, [sl]
    19f0:	e59a300c 	ldr	r3, [sl, #12]
    19f4:	e3530000 	cmp	r3, #0
    19f8:	0a0004f3 	beq	2dcc <zlib_inflate+0x1588>
    19fc:	e59dc010 	ldr	ip, [sp, #16]
    1a00:	e3a03001 	mov	r3, #1
    1a04:	e3a0200b 	mov	r2, #11
    1a08:	e58a3018 	str	r3, [sl, #24]
    1a0c:	e58c3028 	str	r3, [ip, #40]	; 0x28
    1a10:	e58a2000 	str	r2, [sl]
    1a14:	e59d4024 	ldr	r4, [sp, #36]	; 0x24
    1a18:	e3540006 	cmp	r4, #6
    1a1c:	0a0003ef 	beq	29e0 <zlib_inflate+0x119c>
    1a20:	e59a3004 	ldr	r3, [sl, #4]
    1a24:	e3530000 	cmp	r3, #0
    1a28:	1a000016 	bne	1a88 <zlib_inflate+0x244>
    1a2c:	e3560002 	cmp	r6, #2
    1a30:	8a000005 	bhi	1a4c <zlib_inflate+0x208>
    1a34:	e3550000 	cmp	r5, #0
    1a38:	0a00047f 	beq	2c3c <zlib_inflate+0x13f8>
    1a3c:	e4d73001 	ldrb	r3, [r7], #1
    1a40:	e2455001 	sub	r5, r5, #1
    1a44:	e0888613 	add	r8, r8, r3, lsl r6
    1a48:	e2866008 	add	r6, r6, #8
    1a4c:	e1a020a8 	lsr	r2, r8, #1
    1a50:	e2088001 	and	r8, r8, #1
    1a54:	e58a8004 	str	r8, [sl, #4]
    1a58:	e2023003 	and	r3, r2, #3
    1a5c:	e3530002 	cmp	r3, #2
    1a60:	0a000441 	beq	2b6c <zlib_inflate+0x1328>
    1a64:	e3530003 	cmp	r3, #3
    1a68:	0a0003d4 	beq	29c0 <zlib_inflate+0x117c>
    1a6c:	e3530001 	cmp	r3, #1
    1a70:	0a000430 	beq	2b38 <zlib_inflate+0x12f4>
    1a74:	e3a0300d 	mov	r3, #13
    1a78:	e58a3000 	str	r3, [sl]
    1a7c:	e1a08122 	lsr	r8, r2, #2
    1a80:	e2466003 	sub	r6, r6, #3
    1a84:	eaffff9c 	b	18fc <zlib_inflate+0xb8>
    1a88:	e2062007 	and	r2, r6, #7
    1a8c:	e3a03018 	mov	r3, #24
    1a90:	e1a08238 	lsr	r8, r8, r2
    1a94:	e3c66007 	bic	r6, r6, #7
    1a98:	e58a3000 	str	r3, [sl]
    1a9c:	eaffff96 	b	18fc <zlib_inflate+0xb8>
    1aa0:	e59a1044 	ldr	r1, [sl, #68]	; 0x44
    1aa4:	e3510000 	cmp	r1, #0
    1aa8:	0a000015 	beq	1b04 <zlib_inflate+0x2c0>
    1aac:	e1560001 	cmp	r6, r1
    1ab0:	2a00000c 	bcs	1ae8 <zlib_inflate+0x2a4>
    1ab4:	e3550000 	cmp	r5, #0
    1ab8:	0a000378 	beq	28a0 <zlib_inflate+0x105c>
    1abc:	e1a03007 	mov	r3, r7
    1ac0:	ea000001 	b	1acc <zlib_inflate+0x288>
    1ac4:	e3550000 	cmp	r5, #0
    1ac8:	0a000374 	beq	28a0 <zlib_inflate+0x105c>
    1acc:	e4d32001 	ldrb	r2, [r3], #1
    1ad0:	e2455001 	sub	r5, r5, #1
    1ad4:	e1a07003 	mov	r7, r3
    1ad8:	e0888612 	add	r8, r8, r2, lsl r6
    1adc:	e2866008 	add	r6, r6, #8
    1ae0:	e1560001 	cmp	r6, r1
    1ae4:	3afffff6 	bcc	1ac4 <zlib_inflate+0x280>
    1ae8:	e59a203c 	ldr	r2, [sl, #60]	; 0x3c
    1aec:	e3e03000 	mvn	r3, #0
    1af0:	e1c83113 	bic	r3, r8, r3, lsl r1
    1af4:	e1a08138 	lsr	r8, r8, r1
    1af8:	e0616006 	rsb	r6, r1, r6
    1afc:	e0823003 	add	r3, r2, r3
    1b00:	e58a303c 	str	r3, [sl, #60]	; 0x3c
    1b04:	e3a03014 	mov	r3, #20
    1b08:	e58a3000 	str	r3, [sl]
    1b0c:	e59a1054 	ldr	r1, [sl, #84]	; 0x54
    1b10:	e3e03000 	mvn	r3, #0
    1b14:	e59a204c 	ldr	r2, [sl, #76]	; 0x4c
    1b18:	e1e09113 	mvn	r9, r3, lsl r1
    1b1c:	e0083009 	and	r3, r8, r9
    1b20:	e0820103 	add	r0, r2, r3, lsl #2
    1b24:	e7d21103 	ldrb	r1, [r2, r3, lsl #2]
    1b28:	e5d03001 	ldrb	r3, [r0, #1]
    1b2c:	e1d000b2 	ldrh	r0, [r0, #2]
    1b30:	e1560003 	cmp	r6, r3
    1b34:	e1a0c003 	mov	ip, r3
    1b38:	2a000012 	bcs	1b88 <zlib_inflate+0x344>
    1b3c:	e3550000 	cmp	r5, #0
    1b40:	0a000356 	beq	28a0 <zlib_inflate+0x105c>
    1b44:	e1a04007 	mov	r4, r7
    1b48:	ea000001 	b	1b54 <zlib_inflate+0x310>
    1b4c:	e3550000 	cmp	r5, #0
    1b50:	0a000352 	beq	28a0 <zlib_inflate+0x105c>
    1b54:	e4d43001 	ldrb	r3, [r4], #1
    1b58:	e2455001 	sub	r5, r5, #1
    1b5c:	e1a07004 	mov	r7, r4
    1b60:	e0888613 	add	r8, r8, r3, lsl r6
    1b64:	e2866008 	add	r6, r6, #8
    1b68:	e0083009 	and	r3, r8, r9
    1b6c:	e0820103 	add	r0, r2, r3, lsl #2
    1b70:	e7d21103 	ldrb	r1, [r2, r3, lsl #2]
    1b74:	e5d03001 	ldrb	r3, [r0, #1]
    1b78:	e1d000b2 	ldrh	r0, [r0, #2]
    1b7c:	e1530006 	cmp	r3, r6
    1b80:	e1a0c003 	mov	ip, r3
    1b84:	8afffff0 	bhi	1b4c <zlib_inflate+0x308>
    1b88:	e31100f0 	tst	r1, #240	; 0xf0
    1b8c:	1a00002c 	bne	1c44 <zlib_inflate+0x400>
    1b90:	e1a09003 	mov	r9, r3
    1b94:	e3e03000 	mvn	r3, #0
    1b98:	e0891001 	add	r1, r9, r1
    1b9c:	e58d0034 	str	r0, [sp, #52]	; 0x34
    1ba0:	e1e03113 	mvn	r3, r3, lsl r1
    1ba4:	e58d3038 	str	r3, [sp, #56]	; 0x38
    1ba8:	e0033008 	and	r3, r3, r8
    1bac:	e0803933 	add	r3, r0, r3, lsr r9
    1bb0:	e0820103 	add	r0, r2, r3, lsl #2
    1bb4:	e7d21103 	ldrb	r1, [r2, r3, lsl #2]
    1bb8:	e5d03001 	ldrb	r3, [r0, #1]
    1bbc:	e1d000b2 	ldrh	r0, [r0, #2]
    1bc0:	e0894003 	add	r4, r9, r3
    1bc4:	e1560004 	cmp	r6, r4
    1bc8:	2a00001b 	bcs	1c3c <zlib_inflate+0x3f8>
    1bcc:	e3550000 	cmp	r5, #0
    1bd0:	0a000332 	beq	28a0 <zlib_inflate+0x105c>
    1bd4:	e58db03c 	str	fp, [sp, #60]	; 0x3c
    1bd8:	e1a04007 	mov	r4, r7
    1bdc:	e58da040 	str	sl, [sp, #64]	; 0x40
    1be0:	e58dc044 	str	ip, [sp, #68]	; 0x44
    1be4:	e59da034 	ldr	sl, [sp, #52]	; 0x34
    1be8:	e59db038 	ldr	fp, [sp, #56]	; 0x38
    1bec:	ea000001 	b	1bf8 <zlib_inflate+0x3b4>
    1bf0:	e3550000 	cmp	r5, #0
    1bf4:	0a0003cc 	beq	2b2c <zlib_inflate+0x12e8>
    1bf8:	e4d43001 	ldrb	r3, [r4], #1
    1bfc:	e2455001 	sub	r5, r5, #1
    1c00:	e1a07004 	mov	r7, r4
    1c04:	e0888613 	add	r8, r8, r3, lsl r6
    1c08:	e2866008 	add	r6, r6, #8
    1c0c:	e008300b 	and	r3, r8, fp
    1c10:	e08a3933 	add	r3, sl, r3, lsr r9
    1c14:	e0820103 	add	r0, r2, r3, lsl #2
    1c18:	e7d21103 	ldrb	r1, [r2, r3, lsl #2]
    1c1c:	e5d03001 	ldrb	r3, [r0, #1]
    1c20:	e1d000b2 	ldrh	r0, [r0, #2]
    1c24:	e083c009 	add	ip, r3, r9
    1c28:	e15c0006 	cmp	ip, r6
    1c2c:	8affffef 	bhi	1bf0 <zlib_inflate+0x3ac>
    1c30:	e59db03c 	ldr	fp, [sp, #60]	; 0x3c
    1c34:	e59da040 	ldr	sl, [sp, #64]	; 0x40
    1c38:	e59dc044 	ldr	ip, [sp, #68]	; 0x44
    1c3c:	e1a08938 	lsr	r8, r8, r9
    1c40:	e06c6006 	rsb	r6, ip, r6
    1c44:	e3110040 	tst	r1, #64	; 0x40
    1c48:	e1a08338 	lsr	r8, r8, r3
    1c4c:	e0636006 	rsb	r6, r3, r6
    1c50:	0a000354 	beq	29a8 <zlib_inflate+0x1164>
    1c54:	e59f1b84 	ldr	r1, [pc, #2948]	; 27e0 <zlib_inflate+0xf9c>
    1c58:	e08f1001 	add	r1, pc, r1
    1c5c:	ea000052 	b	1dac <zlib_inflate+0x568>
    1c60:	e59a1044 	ldr	r1, [sl, #68]	; 0x44
    1c64:	e3510000 	cmp	r1, #0
    1c68:	1a000331 	bne	2934 <zlib_inflate+0x10f0>
    1c6c:	e59a3040 	ldr	r3, [sl, #64]	; 0x40
    1c70:	e59a2028 	ldr	r2, [sl, #40]	; 0x28
    1c74:	e59dc008 	ldr	ip, [sp, #8]
    1c78:	e59f1b64 	ldr	r1, [pc, #2916]	; 27e4 <zlib_inflate+0xfa0>
    1c7c:	e08b2002 	add	r2, fp, r2
    1c80:	e06c2002 	rsb	r2, ip, r2
    1c84:	e1520003 	cmp	r2, r3
    1c88:	e08f1001 	add	r1, pc, r1
    1c8c:	3a0000ca 	bcc	1fbc <zlib_inflate+0x778>
    1c90:	e3a03016 	mov	r3, #22
    1c94:	e58a3000 	str	r3, [sl]
    1c98:	e59dc008 	ldr	ip, [sp, #8]
    1c9c:	e35c0000 	cmp	ip, #0
    1ca0:	0a0002fe 	beq	28a0 <zlib_inflate+0x105c>
    1ca4:	e59dc008 	ldr	ip, [sp, #8]
    1ca8:	e59a3040 	ldr	r3, [sl, #64]	; 0x40
    1cac:	e06c200b 	rsb	r2, ip, fp
    1cb0:	e1520003 	cmp	r2, r3
    1cb4:	2a000319 	bcs	2920 <zlib_inflate+0x10dc>
    1cb8:	e59a102c 	ldr	r1, [sl, #44]	; 0x2c
    1cbc:	e0622003 	rsb	r2, r2, r3
    1cc0:	e59a003c 	ldr	r0, [sl, #60]	; 0x3c
    1cc4:	e1520001 	cmp	r2, r1
    1cc8:	859a3024 	ldrhi	r3, [sl, #36]	; 0x24
    1ccc:	80612002 	rsbhi	r2, r1, r2
    1cd0:	959a3030 	ldrls	r3, [sl, #48]	; 0x30
    1cd4:	90621001 	rsbls	r1, r2, r1
    1cd8:	859a1030 	ldrhi	r1, [sl, #48]	; 0x30
    1cdc:	80623003 	rsbhi	r3, r2, r3
    1ce0:	e1520000 	cmp	r2, r0
    1ce4:	21a02000 	movcs	r2, r0
    1ce8:	e0833001 	add	r3, r3, r1
    1cec:	e59dc008 	ldr	ip, [sp, #8]
    1cf0:	e2433001 	sub	r3, r3, #1
    1cf4:	e59d4020 	ldr	r4, [sp, #32]
    1cf8:	e152000c 	cmp	r2, ip
    1cfc:	21a0200c 	movcs	r2, ip
    1d00:	e062c00c 	rsb	ip, r2, ip
    1d04:	e0841002 	add	r1, r4, r2
    1d08:	e0622000 	rsb	r2, r2, r0
    1d0c:	e58dc008 	str	ip, [sp, #8]
    1d10:	e58a203c 	str	r2, [sl, #60]	; 0x3c
    1d14:	e1a02004 	mov	r2, r4
    1d18:	e5f30001 	ldrb	r0, [r3, #1]!
    1d1c:	e4c20001 	strb	r0, [r2], #1
    1d20:	e1520001 	cmp	r2, r1
    1d24:	1afffffb 	bne	1d18 <zlib_inflate+0x4d4>
    1d28:	e59a303c 	ldr	r3, [sl, #60]	; 0x3c
    1d2c:	e58d2020 	str	r2, [sp, #32]
    1d30:	e3530000 	cmp	r3, #0
    1d34:	03a03012 	moveq	r3, #18
    1d38:	159a3000 	ldrne	r3, [sl]
    1d3c:	058a3000 	streq	r3, [sl]
    1d40:	eafffeed 	b	18fc <zlib_inflate+0xb8>
    1d44:	e2063007 	and	r3, r6, #7
    1d48:	e3c66007 	bic	r6, r6, #7
    1d4c:	e356001f 	cmp	r6, #31
    1d50:	e1a08338 	lsr	r8, r8, r3
    1d54:	8a00000c 	bhi	1d8c <zlib_inflate+0x548>
    1d58:	e3550000 	cmp	r5, #0
    1d5c:	0a0002cf 	beq	28a0 <zlib_inflate+0x105c>
    1d60:	e1a03007 	mov	r3, r7
    1d64:	ea000001 	b	1d70 <zlib_inflate+0x52c>
    1d68:	e3550000 	cmp	r5, #0
    1d6c:	0a0002cb 	beq	28a0 <zlib_inflate+0x105c>
    1d70:	e4d32001 	ldrb	r2, [r3], #1
    1d74:	e2455001 	sub	r5, r5, #1
    1d78:	e1a07003 	mov	r7, r3
    1d7c:	e0888612 	add	r8, r8, r2, lsl r6
    1d80:	e2866008 	add	r6, r6, #8
    1d84:	e356001f 	cmp	r6, #31
    1d88:	9afffff6 	bls	1d68 <zlib_inflate+0x524>
    1d8c:	e1a02828 	lsr	r2, r8, #16
    1d90:	e6ff3078 	uxth	r3, r8
    1d94:	e2222cff 	eor	r2, r2, #65280	; 0xff00
    1d98:	e22220ff 	eor	r2, r2, #255	; 0xff
    1d9c:	e1530002 	cmp	r3, r2
    1da0:	0a000380 	beq	2ba8 <zlib_inflate+0x1364>
    1da4:	e59f1a3c 	ldr	r1, [pc, #2620]	; 27e8 <zlib_inflate+0xfa4>
    1da8:	e08f1001 	add	r1, pc, r1
    1dac:	e59dc010 	ldr	ip, [sp, #16]
    1db0:	e3a0201b 	mov	r2, #27
    1db4:	e1a03002 	mov	r3, r2
    1db8:	e58c1018 	str	r1, [ip, #24]
    1dbc:	e58a2000 	str	r2, [sl]
    1dc0:	eafffecd 	b	18fc <zlib_inflate+0xb8>
    1dc4:	e59a303c 	ldr	r3, [sl, #60]	; 0x3c
    1dc8:	e3530000 	cmp	r3, #0
    1dcc:	0a0002ef 	beq	2990 <zlib_inflate+0x114c>
    1dd0:	e59d4008 	ldr	r4, [sp, #8]
    1dd4:	e1550003 	cmp	r5, r3
    1dd8:	31a03005 	movcc	r3, r5
    1ddc:	e1530004 	cmp	r3, r4
    1de0:	31a04003 	movcc	r4, r3
    1de4:	e3540000 	cmp	r4, #0
    1de8:	0a0002ac 	beq	28a0 <zlib_inflate+0x105c>
    1dec:	e1a02004 	mov	r2, r4
    1df0:	e1a01007 	mov	r1, r7
    1df4:	e59d0020 	ldr	r0, [sp, #32]
    1df8:	e0645005 	rsb	r5, r4, r5
    1dfc:	eb000597 	bl	3460 <memcpy>
    1e00:	e59dc008 	ldr	ip, [sp, #8]
    1e04:	e0877004 	add	r7, r7, r4
    1e08:	e59a203c 	ldr	r2, [sl, #60]	; 0x3c
    1e0c:	e59a3000 	ldr	r3, [sl]
    1e10:	e064c00c 	rsb	ip, r4, ip
    1e14:	e58dc008 	str	ip, [sp, #8]
    1e18:	e59dc020 	ldr	ip, [sp, #32]
    1e1c:	e08cc004 	add	ip, ip, r4
    1e20:	e0644002 	rsb	r4, r4, r2
    1e24:	e58dc020 	str	ip, [sp, #32]
    1e28:	e58a403c 	str	r4, [sl, #60]	; 0x3c
    1e2c:	eafffeb2 	b	18fc <zlib_inflate+0xb8>
    1e30:	e356000d 	cmp	r6, #13
    1e34:	8a00000c 	bhi	1e6c <zlib_inflate+0x628>
    1e38:	e3550000 	cmp	r5, #0
    1e3c:	0a000297 	beq	28a0 <zlib_inflate+0x105c>
    1e40:	e1a03007 	mov	r3, r7
    1e44:	ea000001 	b	1e50 <zlib_inflate+0x60c>
    1e48:	e3550000 	cmp	r5, #0
    1e4c:	0a000293 	beq	28a0 <zlib_inflate+0x105c>
    1e50:	e4d32001 	ldrb	r2, [r3], #1
    1e54:	e2455001 	sub	r5, r5, #1
    1e58:	e1a07003 	mov	r7, r3
    1e5c:	e0888612 	add	r8, r8, r2, lsl r6
    1e60:	e2866008 	add	r6, r6, #8
    1e64:	e356000d 	cmp	r6, #13
    1e68:	9afffff6 	bls	1e48 <zlib_inflate+0x604>
    1e6c:	e208301f 	and	r3, r8, #31
    1e70:	e300111e 	movw	r1, #286	; 0x11e
    1e74:	e2833c01 	add	r3, r3, #256	; 0x100
    1e78:	e7e422d8 	ubfx	r2, r8, #5, #5
    1e7c:	e2833001 	add	r3, r3, #1
    1e80:	e2822001 	add	r2, r2, #1
    1e84:	e1530001 	cmp	r3, r1
    1e88:	e7e31558 	ubfx	r1, r8, #10, #4
    1e8c:	e2811004 	add	r1, r1, #4
    1e90:	e246600e 	sub	r6, r6, #14
    1e94:	e58a305c 	str	r3, [sl, #92]	; 0x5c
    1e98:	e1a08728 	lsr	r8, r8, #14
    1e9c:	e58a2060 	str	r2, [sl, #96]	; 0x60
    1ea0:	e58a1058 	str	r1, [sl, #88]	; 0x58
    1ea4:	8a0002d7 	bhi	2a08 <zlib_inflate+0x11c4>
    1ea8:	e352001e 	cmp	r2, #30
    1eac:	8a0002d5 	bhi	2a08 <zlib_inflate+0x11c4>
    1eb0:	e3a03000 	mov	r3, #0
    1eb4:	e3a02010 	mov	r2, #16
    1eb8:	e58a3064 	str	r3, [sl, #100]	; 0x64
    1ebc:	e58a2000 	str	r2, [sl]
    1ec0:	ea000003 	b	1ed4 <zlib_inflate+0x690>
    1ec4:	e59a1058 	ldr	r1, [sl, #88]	; 0x58
    1ec8:	e59a3064 	ldr	r3, [sl, #100]	; 0x64
    1ecc:	e1510003 	cmp	r1, r3
    1ed0:	9a000016 	bls	1f30 <zlib_inflate+0x6ec>
    1ed4:	e59f2910 	ldr	r2, [pc, #2320]	; 27ec <zlib_inflate+0xfa8>
    1ed8:	e08f2002 	add	r2, pc, r2
    1edc:	e0822083 	add	r2, r2, r3, lsl #1
    1ee0:	e2822e97 	add	r2, r2, #2416	; 0x970
    1ee4:	e282200e 	add	r2, r2, #14
    1ee8:	e3560002 	cmp	r6, #2
    1eec:	e2833001 	add	r3, r3, #1
    1ef0:	8a000005 	bhi	1f0c <zlib_inflate+0x6c8>
    1ef4:	e3550000 	cmp	r5, #0
    1ef8:	0a000268 	beq	28a0 <zlib_inflate+0x105c>
    1efc:	e4d70001 	ldrb	r0, [r7], #1
    1f00:	e2455001 	sub	r5, r5, #1
    1f04:	e0888610 	add	r8, r8, r0, lsl r6
    1f08:	e2866008 	add	r6, r6, #8
    1f0c:	e1f200b2 	ldrh	r0, [r2, #2]!
    1f10:	e1530001 	cmp	r3, r1
    1f14:	e208c007 	and	ip, r8, #7
    1f18:	e2466003 	sub	r6, r6, #3
    1f1c:	e1a081a8 	lsr	r8, r8, #3
    1f20:	e08a0080 	add	r0, sl, r0, lsl #1
    1f24:	e1c0c6bc 	strh	ip, [r0, #108]	; 0x6c
    1f28:	e58a3064 	str	r3, [sl, #100]	; 0x64
    1f2c:	3affffed 	bcc	1ee8 <zlib_inflate+0x6a4>
    1f30:	e3530012 	cmp	r3, #18
    1f34:	8a00000c 	bhi	1f6c <zlib_inflate+0x728>
    1f38:	e59dc018 	ldr	ip, [sp, #24]
    1f3c:	e2433001 	sub	r3, r3, #1
    1f40:	e59d0030 	ldr	r0, [sp, #48]	; 0x30
    1f44:	e3a01000 	mov	r1, #0
    1f48:	e08c3083 	add	r3, ip, r3, lsl #1
    1f4c:	e1f320b2 	ldrh	r2, [r3, #2]!
    1f50:	e2822034 	add	r2, r2, #52	; 0x34
    1f54:	e1530000 	cmp	r3, r0
    1f58:	e08a2082 	add	r2, sl, r2, lsl #1
    1f5c:	e1c210b4 	strh	r1, [r2, #4]
    1f60:	1afffff9 	bne	1f4c <zlib_inflate+0x708>
    1f64:	e3a03013 	mov	r3, #19
    1f68:	e58a3064 	str	r3, [sl, #100]	; 0x64
    1f6c:	e28a3e52 	add	r3, sl, #1312	; 0x520
    1f70:	e3a01007 	mov	r1, #7
    1f74:	e283300c 	add	r3, r3, #12
    1f78:	e28a2050 	add	r2, sl, #80	; 0x50
    1f7c:	e28acfbb 	add	ip, sl, #748	; 0x2ec
    1f80:	e58a3068 	str	r3, [sl, #104]	; 0x68
    1f84:	e58a3048 	str	r3, [sl, #72]	; 0x48
    1f88:	e3a00000 	mov	r0, #0
    1f8c:	e58a1050 	str	r1, [sl, #80]	; 0x50
    1f90:	e28a3068 	add	r3, sl, #104	; 0x68
    1f94:	e58d2000 	str	r2, [sp]
    1f98:	e28a106c 	add	r1, sl, #108	; 0x6c
    1f9c:	e3a02013 	mov	r2, #19
    1fa0:	e58dc004 	str	ip, [sp, #4]
    1fa4:	ebfffafa 	bl	b94 <zlib_inflate_table>
    1fa8:	e3500000 	cmp	r0, #0
    1fac:	e58d000c 	str	r0, [sp, #12]
    1fb0:	0a000348 	beq	2cd8 <zlib_inflate+0x1494>
    1fb4:	e59f1834 	ldr	r1, [pc, #2100]	; 27f0 <zlib_inflate+0xfac>
    1fb8:	e08f1001 	add	r1, pc, r1
    1fbc:	e59d4010 	ldr	r4, [sp, #16]
    1fc0:	e3a0201b 	mov	r2, #27
    1fc4:	e1a03002 	mov	r3, r2
    1fc8:	e5841018 	str	r1, [r4, #24]
    1fcc:	e58a2000 	str	r2, [sl]
    1fd0:	eafffe49 	b	18fc <zlib_inflate+0xb8>
    1fd4:	e3e04001 	mvn	r4, #1
    1fd8:	e58d400c 	str	r4, [sp, #12]
    1fdc:	e59d000c 	ldr	r0, [sp, #12]
    1fe0:	e28dd04c 	add	sp, sp, #76	; 0x4c
    1fe4:	e8bd8ff0 	pop	{r4, r5, r6, r7, r8, r9, sl, fp, pc}
    1fe8:	e59a3008 	ldr	r3, [sl, #8]
    1fec:	e3530000 	cmp	r3, #0
    1ff0:	0a000269 	beq	299c <zlib_inflate+0x1158>
    1ff4:	e356000f 	cmp	r6, #15
    1ff8:	8a00000c 	bhi	2030 <zlib_inflate+0x7ec>
    1ffc:	e3550000 	cmp	r5, #0
    2000:	0a000226 	beq	28a0 <zlib_inflate+0x105c>
    2004:	e1a03007 	mov	r3, r7
    2008:	ea000001 	b	2014 <zlib_inflate+0x7d0>
    200c:	e3550000 	cmp	r5, #0
    2010:	0a000222 	beq	28a0 <zlib_inflate+0x105c>
    2014:	e4d32001 	ldrb	r2, [r3], #1
    2018:	e2455001 	sub	r5, r5, #1
    201c:	e1a07003 	mov	r7, r3
    2020:	e0888612 	add	r8, r8, r2, lsl r6
    2024:	e2866008 	add	r6, r6, #8
    2028:	e356000f 	cmp	r6, #15
    202c:	9afffff6 	bls	200c <zlib_inflate+0x7c8>
    2030:	e1a03408 	lsl	r3, r8, #8
    2034:	e3012085 	movw	r2, #4229	; 0x1085
    2038:	e3402842 	movt	r2, #2114	; 0x842
    203c:	e6ff3073 	uxth	r3, r3
    2040:	e0833428 	add	r3, r3, r8, lsr #8
    2044:	e082c392 	umull	ip, r2, r2, r3
    2048:	e0621003 	rsb	r1, r2, r3
    204c:	e08220a1 	add	r2, r2, r1, lsr #1
    2050:	e1a02222 	lsr	r2, r2, #4
    2054:	e0622282 	rsb	r2, r2, r2, lsl #5
    2058:	e0533002 	subs	r3, r3, r2
    205c:	0a0002cb 	beq	2b90 <zlib_inflate+0x134c>
    2060:	e59f178c 	ldr	r1, [pc, #1932]	; 27f4 <zlib_inflate+0xfb0>
    2064:	e08f1001 	add	r1, pc, r1
    2068:	eaffffd3 	b	1fbc <zlib_inflate+0x778>
    206c:	e1a0c007 	mov	ip, r7
    2070:	e59d7010 	ldr	r7, [sp, #16]
    2074:	e1a0900b 	mov	r9, fp
    2078:	e3a04000 	mov	r4, #0
    207c:	e3a03001 	mov	r3, #1
    2080:	e58d4018 	str	r4, [sp, #24]
    2084:	e58d300c 	str	r3, [sp, #12]
    2088:	e58d4014 	str	r4, [sp, #20]
    208c:	e59d4020 	ldr	r4, [sp, #32]
    2090:	e587c000 	str	ip, [r7]
    2094:	e5875004 	str	r5, [r7, #4]
    2098:	e587400c 	str	r4, [r7, #12]
    209c:	e59d4008 	ldr	r4, [sp, #8]
    20a0:	e5874010 	str	r4, [r7, #16]
    20a4:	e59a3024 	ldr	r3, [sl, #36]	; 0x24
    20a8:	e58a8034 	str	r8, [sl, #52]	; 0x34
    20ac:	e58a6038 	str	r6, [sl, #56]	; 0x38
    20b0:	e3530000 	cmp	r3, #0
    20b4:	1a000005 	bne	20d0 <zlib_inflate+0x88c>
    20b8:	e59a2000 	ldr	r2, [sl]
    20bc:	e3520017 	cmp	r2, #23
    20c0:	8a000005 	bhi	20dc <zlib_inflate+0x898>
    20c4:	e5972010 	ldr	r2, [r7, #16]
    20c8:	e1520009 	cmp	r2, r9
    20cc:	0a00036d 	beq	2e88 <zlib_inflate+0x1644>
    20d0:	e1a00007 	mov	r0, r7
    20d4:	e1a01009 	mov	r1, r9
    20d8:	ebfffa7b 	bl	acc <zlib_updatewindow>
    20dc:	e5971004 	ldr	r1, [r7, #4]
    20e0:	e5970010 	ldr	r0, [r7, #16]
    20e4:	e59dc01c 	ldr	ip, [sp, #28]
    20e8:	e5972008 	ldr	r2, [r7, #8]
    20ec:	e5973014 	ldr	r3, [r7, #20]
    20f0:	e0600009 	rsb	r0, r0, r9
    20f4:	e061100c 	rsb	r1, r1, ip
    20f8:	e58d0008 	str	r0, [sp, #8]
    20fc:	e0822001 	add	r2, r2, r1
    2100:	e58d1010 	str	r1, [sp, #16]
    2104:	e0833000 	add	r3, r3, r0
    2108:	e5872008 	str	r2, [r7, #8]
    210c:	e5873014 	str	r3, [r7, #20]
    2110:	e59a2008 	ldr	r2, [sl, #8]
    2114:	e59a301c 	ldr	r3, [sl, #28]
    2118:	e3520000 	cmp	r2, #0
    211c:	e0833000 	add	r3, r3, r0
    2120:	e58a301c 	str	r3, [sl, #28]
    2124:	0a000066 	beq	22c4 <zlib_inflate+0xa80>
    2128:	e3500000 	cmp	r0, #0
    212c:	0a000064 	beq	22c4 <zlib_inflate+0xa80>
    2130:	e597500c 	ldr	r5, [r7, #12]
    2134:	e59a1018 	ldr	r1, [sl, #24]
    2138:	e0555000 	subs	r5, r5, r0
    213c:	e6ff0071 	uxth	r0, r1
    2140:	e1a01821 	lsr	r1, r1, #16
    2144:	03a01001 	moveq	r1, #1
    2148:	0a00005b 	beq	22bc <zlib_inflate+0xa78>
    214c:	e3083071 	movw	r3, #32881	; 0x8071
    2150:	e59d8008 	ldr	r8, [sp, #8]
    2154:	e3483007 	movt	r3, #32775	; 0x8007
    2158:	e58da01c 	str	sl, [sp, #28]
    215c:	e1a0a003 	mov	sl, r3
    2160:	e30165b0 	movw	r6, #5552	; 0x15b0
    2164:	e1580006 	cmp	r8, r6
    2168:	31a06008 	movcc	r6, r8
    216c:	e356000f 	cmp	r6, #15
    2170:	e0668008 	rsb	r8, r6, r8
    2174:	e1a02006 	mov	r2, r6
    2178:	da000039 	ble	2264 <zlib_inflate+0xa20>
    217c:	e1a03005 	mov	r3, r5
    2180:	e5d39000 	ldrb	r9, [r3]
    2184:	e2422010 	sub	r2, r2, #16
    2188:	e5d34001 	ldrb	r4, [r3, #1]
    218c:	e352000f 	cmp	r2, #15
    2190:	e5d3c002 	ldrb	ip, [r3, #2]
    2194:	e5d3b003 	ldrb	fp, [r3, #3]
    2198:	e0809009 	add	r9, r0, r9
    219c:	e0890004 	add	r0, r9, r4
    21a0:	e5d34004 	ldrb	r4, [r3, #4]
    21a4:	e080c00c 	add	ip, r0, ip
    21a8:	e0809009 	add	r9, r0, r9
    21ac:	e089900c 	add	r9, r9, ip
    21b0:	e08c000b 	add	r0, ip, fp
    21b4:	e5d3c005 	ldrb	ip, [r3, #5]
    21b8:	e0899000 	add	r9, r9, r0
    21bc:	e5d3b006 	ldrb	fp, [r3, #6]
    21c0:	e0800004 	add	r0, r0, r4
    21c4:	e5d34007 	ldrb	r4, [r3, #7]
    21c8:	e0899000 	add	r9, r9, r0
    21cc:	e080000c 	add	r0, r0, ip
    21d0:	e5d3c008 	ldrb	ip, [r3, #8]
    21d4:	e0899000 	add	r9, r9, r0
    21d8:	e080000b 	add	r0, r0, fp
    21dc:	e0804004 	add	r4, r0, r4
    21e0:	e0899000 	add	r9, r9, r0
    21e4:	e5d30009 	ldrb	r0, [r3, #9]
    21e8:	e0899004 	add	r9, r9, r4
    21ec:	e5d3b00a 	ldrb	fp, [r3, #10]
    21f0:	e084400c 	add	r4, r4, ip
    21f4:	e5d3c00b 	ldrb	ip, [r3, #11]
    21f8:	e0899004 	add	r9, r9, r4
    21fc:	e0844000 	add	r4, r4, r0
    2200:	e5d3000c 	ldrb	r0, [r3, #12]
    2204:	e0899004 	add	r9, r9, r4
    2208:	e084400b 	add	r4, r4, fp
    220c:	e084c00c 	add	ip, r4, ip
    2210:	e0899004 	add	r9, r9, r4
    2214:	e5d3b00d 	ldrb	fp, [r3, #13]
    2218:	e089900c 	add	r9, r9, ip
    221c:	e08cc000 	add	ip, ip, r0
    2220:	e5d3000e 	ldrb	r0, [r3, #14]
    2224:	e5d3400f 	ldrb	r4, [r3, #15]
    2228:	e089900c 	add	r9, r9, ip
    222c:	e08cc00b 	add	ip, ip, fp
    2230:	e2833010 	add	r3, r3, #16
    2234:	e08c0000 	add	r0, ip, r0
    2238:	e089900c 	add	r9, r9, ip
    223c:	e0899000 	add	r9, r9, r0
    2240:	e0800004 	add	r0, r0, r4
    2244:	e0899000 	add	r9, r9, r0
    2248:	e0811009 	add	r1, r1, r9
    224c:	caffffcb 	bgt	2180 <zlib_inflate+0x93c>
    2250:	e2462010 	sub	r2, r6, #16
    2254:	e1a03222 	lsr	r3, r2, #4
    2258:	e283c001 	add	ip, r3, #1
    225c:	e0422203 	sub	r2, r2, r3, lsl #4
    2260:	e085520c 	add	r5, r5, ip, lsl #4
    2264:	e3520000 	cmp	r2, #0
    2268:	0a000005 	beq	2284 <zlib_inflate+0xa40>
    226c:	e0852002 	add	r2, r5, r2
    2270:	e4d53001 	ldrb	r3, [r5], #1
    2274:	e1550002 	cmp	r5, r2
    2278:	e0800003 	add	r0, r0, r3
    227c:	e0811000 	add	r1, r1, r0
    2280:	1afffffa 	bne	2270 <zlib_inflate+0xa2c>
    2284:	e082309a 	umull	r3, r2, sl, r0
    2288:	e3580000 	cmp	r8, #0
    228c:	e083419a 	umull	r4, r3, sl, r1
    2290:	e1a027a2 	lsr	r2, r2, #15
    2294:	e062c602 	rsb	ip, r2, r2, lsl #12
    2298:	e1a037a3 	lsr	r3, r3, #15
    229c:	e082220c 	add	r2, r2, ip, lsl #4
    22a0:	e063c603 	rsb	ip, r3, r3, lsl #12
    22a4:	e0620000 	rsb	r0, r2, r0
    22a8:	e083320c 	add	r3, r3, ip, lsl #4
    22ac:	e0631001 	rsb	r1, r3, r1
    22b0:	1affffaa 	bne	2160 <zlib_inflate+0x91c>
    22b4:	e59da01c 	ldr	sl, [sp, #28]
    22b8:	e1801801 	orr	r1, r0, r1, lsl #16
    22bc:	e58a1018 	str	r1, [sl, #24]
    22c0:	e5871028 	str	r1, [r7, #40]	; 0x28
    22c4:	e59a2004 	ldr	r2, [sl, #4]
    22c8:	e59a3000 	ldr	r3, [sl]
    22cc:	e59a1038 	ldr	r1, [sl, #56]	; 0x38
    22d0:	e59dc018 	ldr	ip, [sp, #24]
    22d4:	e3520000 	cmp	r2, #0
    22d8:	13a02040 	movne	r2, #64	; 0x40
    22dc:	03a02000 	moveq	r2, #0
    22e0:	e353000b 	cmp	r3, #11
    22e4:	e0822001 	add	r2, r2, r1
    22e8:	03a03080 	moveq	r3, #128	; 0x80
    22ec:	13a03000 	movne	r3, #0
    22f0:	e35c0000 	cmp	ip, #0
    22f4:	e0823003 	add	r3, r2, r3
    22f8:	e5873024 	str	r3, [r7, #36]	; 0x24
    22fc:	0a000174 	beq	28d4 <zlib_inflate+0x1090>
    2300:	e5973010 	ldr	r3, [r7, #16]
    2304:	e3530000 	cmp	r3, #0
    2308:	0a000171 	beq	28d4 <zlib_inflate+0x1090>
    230c:	e5973004 	ldr	r3, [r7, #4]
    2310:	e3530000 	cmp	r3, #0
    2314:	1a00016e 	bne	28d4 <zlib_inflate+0x1090>
    2318:	e597301c 	ldr	r3, [r7, #28]
    231c:	e3530000 	cmp	r3, #0
    2320:	0a00017b 	beq	2914 <zlib_inflate+0x10d0>
    2324:	e5932000 	ldr	r2, [r3]
    2328:	e352000d 	cmp	r2, #13
    232c:	13e0c002 	mvnne	ip, #2
    2330:	158dc00c 	strne	ip, [sp, #12]
    2334:	1affff28 	bne	1fdc <zlib_inflate+0x798>
    2338:	e5932038 	ldr	r2, [r3, #56]	; 0x38
    233c:	e3520000 	cmp	r2, #0
    2340:	13e03002 	mvnne	r3, #2
    2344:	158d300c 	strne	r3, [sp, #12]
    2348:	03a0100b 	moveq	r1, #11
    234c:	058d200c 	streq	r2, [sp, #12]
    2350:	05831000 	streq	r1, [r3]
    2354:	eaffff20 	b	1fdc <zlib_inflate+0x798>
    2358:	e3a04000 	mov	r4, #0
    235c:	e3e03002 	mvn	r3, #2
    2360:	e1a0c007 	mov	ip, r7
    2364:	e1a0900b 	mov	r9, fp
    2368:	e59d7010 	ldr	r7, [sp, #16]
    236c:	e58d4018 	str	r4, [sp, #24]
    2370:	e58d300c 	str	r3, [sp, #12]
    2374:	e58d4014 	str	r4, [sp, #20]
    2378:	eaffff43 	b	208c <zlib_inflate+0x848>
    237c:	e3e0c003 	mvn	ip, #3
    2380:	e58dc00c 	str	ip, [sp, #12]
    2384:	eaffff14 	b	1fdc <zlib_inflate+0x798>
    2388:	e59dc008 	ldr	ip, [sp, #8]
    238c:	e35c0000 	cmp	ip, #0
    2390:	0a000142 	beq	28a0 <zlib_inflate+0x105c>
    2394:	e59dc008 	ldr	ip, [sp, #8]
    2398:	e3a02012 	mov	r2, #18
    239c:	e59d4020 	ldr	r4, [sp, #32]
    23a0:	e1a03002 	mov	r3, r2
    23a4:	e59a103c 	ldr	r1, [sl, #60]	; 0x3c
    23a8:	e24cc001 	sub	ip, ip, #1
    23ac:	e58dc008 	str	ip, [sp, #8]
    23b0:	e4c41001 	strb	r1, [r4], #1
    23b4:	e58a2000 	str	r2, [sl]
    23b8:	e58d4020 	str	r4, [sp, #32]
    23bc:	eafffd4e 	b	18fc <zlib_inflate+0xb8>
    23c0:	e59a3008 	ldr	r3, [sl, #8]
    23c4:	e3530000 	cmp	r3, #0
    23c8:	0a00025b 	beq	2d3c <zlib_inflate+0x14f8>
    23cc:	e356001f 	cmp	r6, #31
    23d0:	8a00000c 	bhi	2408 <zlib_inflate+0xbc4>
    23d4:	e3550000 	cmp	r5, #0
    23d8:	0a000130 	beq	28a0 <zlib_inflate+0x105c>
    23dc:	e1a03007 	mov	r3, r7
    23e0:	ea000001 	b	23ec <zlib_inflate+0xba8>
    23e4:	e3550000 	cmp	r5, #0
    23e8:	0a00012c 	beq	28a0 <zlib_inflate+0x105c>
    23ec:	e4d32001 	ldrb	r2, [r3], #1
    23f0:	e2455001 	sub	r5, r5, #1
    23f4:	e1a07003 	mov	r7, r3
    23f8:	e0888612 	add	r8, r8, r2, lsl r6
    23fc:	e2866008 	add	r6, r6, #8
    2400:	e356001f 	cmp	r6, #31
    2404:	9afffff6 	bls	23e4 <zlib_inflate+0xba0>
    2408:	e59dc010 	ldr	ip, [sp, #16]
    240c:	e59d4008 	ldr	r4, [sp, #8]
    2410:	e59c3014 	ldr	r3, [ip, #20]
    2414:	e064200b 	rsb	r2, r4, fp
    2418:	e3520000 	cmp	r2, #0
    241c:	e0833002 	add	r3, r3, r2
    2420:	e58c3014 	str	r3, [ip, #20]
    2424:	e59a301c 	ldr	r3, [sl, #28]
    2428:	e0833002 	add	r3, r3, r2
    242c:	e58a301c 	str	r3, [sl, #28]
    2430:	0a00006c 	beq	25e8 <zlib_inflate+0xda4>
    2434:	e59dc020 	ldr	ip, [sp, #32]
    2438:	e59a4018 	ldr	r4, [sl, #24]
    243c:	e05c0002 	subs	r0, ip, r2
    2440:	e6ff1074 	uxth	r1, r4
    2444:	e1a04824 	lsr	r4, r4, #16
    2448:	03a01001 	moveq	r1, #1
    244c:	0a000062 	beq	25dc <zlib_inflate+0xd98>
    2450:	e3083071 	movw	r3, #32881	; 0x8071
    2454:	e58d5034 	str	r5, [sp, #52]	; 0x34
    2458:	e3483007 	movt	r3, #32775	; 0x8007
    245c:	e58d8038 	str	r8, [sp, #56]	; 0x38
    2460:	e58da040 	str	sl, [sp, #64]	; 0x40
    2464:	e1a08002 	mov	r8, r2
    2468:	e1a05000 	mov	r5, r0
    246c:	e1a0a003 	mov	sl, r3
    2470:	e58d603c 	str	r6, [sp, #60]	; 0x3c
    2474:	e30165b0 	movw	r6, #5552	; 0x15b0
    2478:	e1580006 	cmp	r8, r6
    247c:	31a06008 	movcc	r6, r8
    2480:	e356000f 	cmp	r6, #15
    2484:	e0668008 	rsb	r8, r6, r8
    2488:	e1a02006 	mov	r2, r6
    248c:	da000039 	ble	2578 <zlib_inflate+0xd34>
    2490:	e1a03005 	mov	r3, r5
    2494:	e5d39000 	ldrb	r9, [r3]
    2498:	e2422010 	sub	r2, r2, #16
    249c:	e5d3c001 	ldrb	ip, [r3, #1]
    24a0:	e352000f 	cmp	r2, #15
    24a4:	e5d30002 	ldrb	r0, [r3, #2]
    24a8:	e5d3b003 	ldrb	fp, [r3, #3]
    24ac:	e0819009 	add	r9, r1, r9
    24b0:	e089100c 	add	r1, r9, ip
    24b4:	e5d3c004 	ldrb	ip, [r3, #4]
    24b8:	e0810000 	add	r0, r1, r0
    24bc:	e0819009 	add	r9, r1, r9
    24c0:	e0899000 	add	r9, r9, r0
    24c4:	e080100b 	add	r1, r0, fp
    24c8:	e5d30005 	ldrb	r0, [r3, #5]
    24cc:	e0899001 	add	r9, r9, r1
    24d0:	e5d3b006 	ldrb	fp, [r3, #6]
    24d4:	e081100c 	add	r1, r1, ip
    24d8:	e5d3c007 	ldrb	ip, [r3, #7]
    24dc:	e0899001 	add	r9, r9, r1
    24e0:	e0811000 	add	r1, r1, r0
    24e4:	e5d30008 	ldrb	r0, [r3, #8]
    24e8:	e0899001 	add	r9, r9, r1
    24ec:	e081100b 	add	r1, r1, fp
    24f0:	e081c00c 	add	ip, r1, ip
    24f4:	e0899001 	add	r9, r9, r1
    24f8:	e5d31009 	ldrb	r1, [r3, #9]
    24fc:	e089900c 	add	r9, r9, ip
    2500:	e5d3b00a 	ldrb	fp, [r3, #10]
    2504:	e08cc000 	add	ip, ip, r0
    2508:	e5d3000b 	ldrb	r0, [r3, #11]
    250c:	e089900c 	add	r9, r9, ip
    2510:	e08cc001 	add	ip, ip, r1
    2514:	e5d3100c 	ldrb	r1, [r3, #12]
    2518:	e089900c 	add	r9, r9, ip
    251c:	e08cc00b 	add	ip, ip, fp
    2520:	e08c0000 	add	r0, ip, r0
    2524:	e089900c 	add	r9, r9, ip
    2528:	e5d3b00d 	ldrb	fp, [r3, #13]
    252c:	e0899000 	add	r9, r9, r0
    2530:	e0800001 	add	r0, r0, r1
    2534:	e5d3100e 	ldrb	r1, [r3, #14]
    2538:	e5d3c00f 	ldrb	ip, [r3, #15]
    253c:	e0899000 	add	r9, r9, r0
    2540:	e080000b 	add	r0, r0, fp
    2544:	e2833010 	add	r3, r3, #16
    2548:	e0801001 	add	r1, r0, r1
    254c:	e0899000 	add	r9, r9, r0
    2550:	e0899001 	add	r9, r9, r1
    2554:	e081100c 	add	r1, r1, ip
    2558:	e0899001 	add	r9, r9, r1
    255c:	e0844009 	add	r4, r4, r9
    2560:	caffffcb 	bgt	2494 <zlib_inflate+0xc50>
    2564:	e2462010 	sub	r2, r6, #16
    2568:	e1a03222 	lsr	r3, r2, #4
    256c:	e2830001 	add	r0, r3, #1
    2570:	e0422203 	sub	r2, r2, r3, lsl #4
    2574:	e0855200 	add	r5, r5, r0, lsl #4
    2578:	e3520000 	cmp	r2, #0
    257c:	0a000005 	beq	2598 <zlib_inflate+0xd54>
    2580:	e0852002 	add	r2, r5, r2
    2584:	e4d53001 	ldrb	r3, [r5], #1
    2588:	e1550002 	cmp	r5, r2
    258c:	e0811003 	add	r1, r1, r3
    2590:	e0844001 	add	r4, r4, r1
    2594:	1afffffa 	bne	2584 <zlib_inflate+0xd40>
    2598:	e082019a 	umull	r0, r2, sl, r1
    259c:	e3580000 	cmp	r8, #0
    25a0:	e083c49a 	umull	ip, r3, sl, r4
    25a4:	e1a027a2 	lsr	r2, r2, #15
    25a8:	e0620602 	rsb	r0, r2, r2, lsl #12
    25ac:	e1a037a3 	lsr	r3, r3, #15
    25b0:	e0822200 	add	r2, r2, r0, lsl #4
    25b4:	e0630603 	rsb	r0, r3, r3, lsl #12
    25b8:	e0621001 	rsb	r1, r2, r1
    25bc:	e0833200 	add	r3, r3, r0, lsl #4
    25c0:	e0634004 	rsb	r4, r3, r4
    25c4:	1affffaa 	bne	2474 <zlib_inflate+0xc30>
    25c8:	e59d5034 	ldr	r5, [sp, #52]	; 0x34
    25cc:	e1811804 	orr	r1, r1, r4, lsl #16
    25d0:	e59d8038 	ldr	r8, [sp, #56]	; 0x38
    25d4:	e59d603c 	ldr	r6, [sp, #60]	; 0x3c
    25d8:	e59da040 	ldr	sl, [sp, #64]	; 0x40
    25dc:	e59d4010 	ldr	r4, [sp, #16]
    25e0:	e58a1018 	str	r1, [sl, #24]
    25e4:	e5841028 	str	r1, [r4, #40]	; 0x28
    25e8:	e1a01c28 	lsr	r1, r8, #24
    25ec:	e1a02428 	lsr	r2, r8, #8
    25f0:	e59a3018 	ldr	r3, [sl, #24]
    25f4:	e0811c08 	add	r1, r1, r8, lsl #24
    25f8:	e2022cff 	and	r2, r2, #65280	; 0xff00
    25fc:	e0812002 	add	r2, r1, r2
    2600:	e2081cff 	and	r1, r8, #65280	; 0xff00
    2604:	e0822401 	add	r2, r2, r1, lsl #8
    2608:	e1520003 	cmp	r2, r3
    260c:	0a000210 	beq	2e54 <zlib_inflate+0x1610>
    2610:	e59f11e0 	ldr	r1, [pc, #480]	; 27f8 <zlib_inflate+0xfb4>
    2614:	e3a0201b 	mov	r2, #27
    2618:	e59dc010 	ldr	ip, [sp, #16]
    261c:	e1a03002 	mov	r3, r2
    2620:	e59db008 	ldr	fp, [sp, #8]
    2624:	e08f1001 	add	r1, pc, r1
    2628:	e58c1018 	str	r1, [ip, #24]
    262c:	e58a2000 	str	r2, [sl]
    2630:	eafffcb1 	b	18fc <zlib_inflate+0xb8>
    2634:	e59a4064 	ldr	r4, [sl, #100]	; 0x64
    2638:	e59ac05c 	ldr	ip, [sl, #92]	; 0x5c
    263c:	e28a006a 	add	r0, sl, #106	; 0x6a
    2640:	e59a3060 	ldr	r3, [sl, #96]	; 0x60
    2644:	e58d0038 	str	r0, [sp, #56]	; 0x38
    2648:	e58dc034 	str	ip, [sp, #52]	; 0x34
    264c:	e08c9003 	add	r9, ip, r3
    2650:	e1540009 	cmp	r4, r9
    2654:	2a0001c3 	bcs	2d68 <zlib_inflate+0x1524>
    2658:	e59ac050 	ldr	ip, [sl, #80]	; 0x50
    265c:	e3a01001 	mov	r1, #1
    2660:	e59a0048 	ldr	r0, [sl, #72]	; 0x48
    2664:	e1a0cc11 	lsl	ip, r1, ip
    2668:	e24cc001 	sub	ip, ip, #1
    266c:	e008300c 	and	r3, r8, ip
    2670:	e0803103 	add	r3, r0, r3, lsl #2
    2674:	e5d31001 	ldrb	r1, [r3, #1]
    2678:	e1d320b2 	ldrh	r2, [r3, #2]
    267c:	e1560001 	cmp	r6, r1
    2680:	2a000010 	bcs	26c8 <zlib_inflate+0xe84>
    2684:	e3550000 	cmp	r5, #0
    2688:	0a000084 	beq	28a0 <zlib_inflate+0x105c>
    268c:	e1a03007 	mov	r3, r7
    2690:	ea000001 	b	269c <zlib_inflate+0xe58>
    2694:	e3550000 	cmp	r5, #0
    2698:	0a000080 	beq	28a0 <zlib_inflate+0x105c>
    269c:	e4d32001 	ldrb	r2, [r3], #1
    26a0:	e2455001 	sub	r5, r5, #1
    26a4:	e1a07003 	mov	r7, r3
    26a8:	e0888612 	add	r8, r8, r2, lsl r6
    26ac:	e2866008 	add	r6, r6, #8
    26b0:	e008200c 	and	r2, r8, ip
    26b4:	e0802102 	add	r2, r0, r2, lsl #2
    26b8:	e5d21001 	ldrb	r1, [r2, #1]
    26bc:	e1d220b2 	ldrh	r2, [r2, #2]
    26c0:	e1510006 	cmp	r1, r6
    26c4:	8afffff2 	bhi	2694 <zlib_inflate+0xe50>
    26c8:	e352000f 	cmp	r2, #15
    26cc:	8a0000d3 	bhi	2a20 <zlib_inflate+0x11dc>
    26d0:	e08a3084 	add	r3, sl, r4, lsl #1
    26d4:	e2844001 	add	r4, r4, #1
    26d8:	e1a08138 	lsr	r8, r8, r1
    26dc:	e0616006 	rsb	r6, r1, r6
    26e0:	e1c326bc 	strh	r2, [r3, #108]	; 0x6c
    26e4:	e58a4064 	str	r4, [sl, #100]	; 0x64
    26e8:	eaffffd8 	b	2650 <zlib_inflate+0xe0c>
    26ec:	e3a03012 	mov	r3, #18
    26f0:	e58a3000 	str	r3, [sl]
    26f4:	e59d4008 	ldr	r4, [sp, #8]
    26f8:	e3003101 	movw	r3, #257	; 0x101
    26fc:	e3550005 	cmp	r5, #5
    2700:	81540003 	cmphi	r4, r3
    2704:	8a0000f0 	bhi	2acc <zlib_inflate+0x1288>
    2708:	e59a3050 	ldr	r3, [sl, #80]	; 0x50
    270c:	e3e04000 	mvn	r4, #0
    2710:	e59a2048 	ldr	r2, [sl, #72]	; 0x48
    2714:	e1e04314 	mvn	r4, r4, lsl r3
    2718:	e0083004 	and	r3, r8, r4
    271c:	e0820103 	add	r0, r2, r3, lsl #2
    2720:	e7d21103 	ldrb	r1, [r2, r3, lsl #2]
    2724:	e5d03001 	ldrb	r3, [r0, #1]
    2728:	e1d000b2 	ldrh	r0, [r0, #2]
    272c:	e1560003 	cmp	r6, r3
    2730:	2a000011 	bcs	277c <zlib_inflate+0xf38>
    2734:	e3550000 	cmp	r5, #0
    2738:	0a000058 	beq	28a0 <zlib_inflate+0x105c>
    273c:	e1a0c007 	mov	ip, r7
    2740:	ea000001 	b	274c <zlib_inflate+0xf08>
    2744:	e3550000 	cmp	r5, #0
    2748:	0a000054 	beq	28a0 <zlib_inflate+0x105c>
    274c:	e4dc3001 	ldrb	r3, [ip], #1
    2750:	e2455001 	sub	r5, r5, #1
    2754:	e1a0700c 	mov	r7, ip
    2758:	e0888613 	add	r8, r8, r3, lsl r6
    275c:	e2866008 	add	r6, r6, #8
    2760:	e0083004 	and	r3, r8, r4
    2764:	e0820103 	add	r0, r2, r3, lsl #2
    2768:	e7d21103 	ldrb	r1, [r2, r3, lsl #2]
    276c:	e5d03001 	ldrb	r3, [r0, #1]
    2770:	e1d000b2 	ldrh	r0, [r0, #2]
    2774:	e1530006 	cmp	r3, r6
    2778:	8afffff1 	bhi	2744 <zlib_inflate+0xf00>
    277c:	e3510000 	cmp	r1, #0
    2780:	0a0000fc 	beq	2b78 <zlib_inflate+0x1334>
    2784:	e31100f0 	tst	r1, #240	; 0xf0
    2788:	1a000127 	bne	2c2c <zlib_inflate+0x13e8>
    278c:	e0831001 	add	r1, r3, r1
    2790:	e3e09000 	mvn	r9, #0
    2794:	e1e09119 	mvn	r9, r9, lsl r1
    2798:	e0091008 	and	r1, r9, r8
    279c:	e58d9038 	str	r9, [sp, #56]	; 0x38
    27a0:	e0801331 	add	r1, r0, r1, lsr r3
    27a4:	e082c101 	add	ip, r2, r1, lsl #2
    27a8:	e7d21101 	ldrb	r1, [r2, r1, lsl #2]
    27ac:	e5dc4001 	ldrb	r4, [ip, #1]
    27b0:	e1dcc0b2 	ldrh	ip, [ip, #2]
    27b4:	e58dc034 	str	ip, [sp, #52]	; 0x34
    27b8:	e083c004 	add	ip, r3, r4
    27bc:	e156000c 	cmp	r6, ip
    27c0:	2a000027 	bcs	2864 <zlib_inflate+0x1020>
    27c4:	e3550000 	cmp	r5, #0
    27c8:	0a000034 	beq	28a0 <zlib_inflate+0x105c>
    27cc:	e1a0c007 	mov	ip, r7
    27d0:	ea000013 	b	2824 <zlib_inflate+0xfe0>
    27d4:	00003f38 	.word	0x00003f38
    27d8:	00003f04 	.word	0x00003f04
    27dc:	000049d8 	.word	0x000049d8
    27e0:	000045c4 	.word	0x000045c4
    27e4:	00004574 	.word	0x00004574
    27e8:	00004504 	.word	0x00004504
    27ec:	000038f4 	.word	0x000038f4
    27f0:	00004338 	.word	0x00004338
    27f4:	000041ec 	.word	0x000041ec
    27f8:	00003d38 	.word	0x00003d38
    27fc:	0000399c 	.word	0x0000399c
    2800:	000038c8 	.word	0x000038c8
    2804:	000036c8 	.word	0x000036c8
    2808:	0000356c 	.word	0x0000356c
    280c:	00003564 	.word	0x00003564
    2810:	000034cc 	.word	0x000034cc
    2814:	00003494 	.word	0x00003494
    2818:	00003450 	.word	0x00003450
    281c:	e3550000 	cmp	r5, #0
    2820:	0a00001e 	beq	28a0 <zlib_inflate+0x105c>
    2824:	e4dc1001 	ldrb	r1, [ip], #1
    2828:	e2455001 	sub	r5, r5, #1
    282c:	e59d4038 	ldr	r4, [sp, #56]	; 0x38
    2830:	e1a0700c 	mov	r7, ip
    2834:	e0888611 	add	r8, r8, r1, lsl r6
    2838:	e2866008 	add	r6, r6, #8
    283c:	e0081004 	and	r1, r8, r4
    2840:	e0801331 	add	r1, r0, r1, lsr r3
    2844:	e0829101 	add	r9, r2, r1, lsl #2
    2848:	e7d21101 	ldrb	r1, [r2, r1, lsl #2]
    284c:	e5d94001 	ldrb	r4, [r9, #1]
    2850:	e1d990b2 	ldrh	r9, [r9, #2]
    2854:	e58d9034 	str	r9, [sp, #52]	; 0x34
    2858:	e0849003 	add	r9, r4, r3
    285c:	e1590006 	cmp	r9, r6
    2860:	8affffed 	bhi	281c <zlib_inflate+0xfd8>
    2864:	e59dc034 	ldr	ip, [sp, #52]	; 0x34
    2868:	e1a08338 	lsr	r8, r8, r3
    286c:	e3510000 	cmp	r1, #0
    2870:	e0636006 	rsb	r6, r3, r6
    2874:	e1a08438 	lsr	r8, r8, r4
    2878:	e58ac03c 	str	ip, [sl, #60]	; 0x3c
    287c:	e0646006 	rsb	r6, r4, r6
    2880:	0a0000bf 	beq	2b84 <zlib_inflate+0x1340>
    2884:	e3110020 	tst	r1, #32
    2888:	1a000040 	bne	2990 <zlib_inflate+0x114c>
    288c:	e3110040 	tst	r1, #64	; 0x40
    2890:	0a000124 	beq	2d28 <zlib_inflate+0x14e4>
    2894:	e51f10a0 	ldr	r1, [pc, #-160]	; 27fc <zlib_inflate+0xfb8>
    2898:	e08f1001 	add	r1, pc, r1
    289c:	eafffdc6 	b	1fbc <zlib_inflate+0x778>
    28a0:	e1a0900b 	mov	r9, fp
    28a4:	e59d200c 	ldr	r2, [sp, #12]
    28a8:	e1a0c007 	mov	ip, r7
    28ac:	e59d4024 	ldr	r4, [sp, #36]	; 0x24
    28b0:	e59d7010 	ldr	r7, [sp, #16]
    28b4:	e2722001 	rsbs	r2, r2, #1
    28b8:	33a02000 	movcc	r2, #0
    28bc:	e58d2014 	str	r2, [sp, #20]
    28c0:	e3540002 	cmp	r4, #2
    28c4:	13a02000 	movne	r2, #0
    28c8:	02022001 	andeq	r2, r2, #1
    28cc:	e58d2018 	str	r2, [sp, #24]
    28d0:	eafffded 	b	208c <zlib_inflate+0x848>
    28d4:	e59d0010 	ldr	r0, [sp, #16]
    28d8:	e59d1008 	ldr	r1, [sp, #8]
    28dc:	e1900001 	orrs	r0, r0, r1
    28e0:	0a000002 	beq	28f0 <zlib_inflate+0x10ac>
    28e4:	e59d4024 	ldr	r4, [sp, #36]	; 0x24
    28e8:	e3540005 	cmp	r4, #5
    28ec:	1afffdba 	bne	1fdc <zlib_inflate+0x798>
    28f0:	e59dc014 	ldr	ip, [sp, #20]
    28f4:	e59d300c 	ldr	r3, [sp, #12]
    28f8:	e35c0000 	cmp	ip, #0
    28fc:	13e03004 	mvnne	r3, #4
    2900:	e58d300c 	str	r3, [sp, #12]
    2904:	eafffdb4 	b	1fdc <zlib_inflate+0x798>
    2908:	e5973004 	ldr	r3, [r7, #4]
    290c:	e3530000 	cmp	r3, #0
    2910:	0afffbd6 	beq	1870 <zlib_inflate+0x2c>
    2914:	e3e03001 	mvn	r3, #1
    2918:	e58d300c 	str	r3, [sp, #12]
    291c:	eafffdae 	b	1fdc <zlib_inflate+0x798>
    2920:	e59a203c 	ldr	r2, [sl, #60]	; 0x3c
    2924:	e59d4020 	ldr	r4, [sp, #32]
    2928:	e1a00002 	mov	r0, r2
    292c:	e0633004 	rsb	r3, r3, r4
    2930:	eafffced 	b	1cec <zlib_inflate+0x4a8>
    2934:	e1560001 	cmp	r6, r1
    2938:	2a00000c 	bcs	2970 <zlib_inflate+0x112c>
    293c:	e3550000 	cmp	r5, #0
    2940:	0affffd6 	beq	28a0 <zlib_inflate+0x105c>
    2944:	e1a03007 	mov	r3, r7
    2948:	ea000001 	b	2954 <zlib_inflate+0x1110>
    294c:	e3550000 	cmp	r5, #0
    2950:	0affffd2 	beq	28a0 <zlib_inflate+0x105c>
    2954:	e4d32001 	ldrb	r2, [r3], #1
    2958:	e2455001 	sub	r5, r5, #1
    295c:	e1a07003 	mov	r7, r3
    2960:	e0888612 	add	r8, r8, r2, lsl r6
    2964:	e2866008 	add	r6, r6, #8
    2968:	e1560001 	cmp	r6, r1
    296c:	3afffff6 	bcc	294c <zlib_inflate+0x1108>
    2970:	e59a3040 	ldr	r3, [sl, #64]	; 0x40
    2974:	e3e02000 	mvn	r2, #0
    2978:	e1c82112 	bic	r2, r8, r2, lsl r1
    297c:	e0616006 	rsb	r6, r1, r6
    2980:	e1a08138 	lsr	r8, r8, r1
    2984:	e0823003 	add	r3, r2, r3
    2988:	e58a3040 	str	r3, [sl, #64]	; 0x40
    298c:	eafffcb7 	b	1c70 <zlib_inflate+0x42c>
    2990:	e3a0300b 	mov	r3, #11
    2994:	e58a3000 	str	r3, [sl]
    2998:	eafffbd7 	b	18fc <zlib_inflate+0xb8>
    299c:	e3a0300c 	mov	r3, #12
    29a0:	e58a3000 	str	r3, [sl]
    29a4:	eafffbd4 	b	18fc <zlib_inflate+0xb8>
    29a8:	e201100f 	and	r1, r1, #15
    29ac:	e3a03015 	mov	r3, #21
    29b0:	e58a1044 	str	r1, [sl, #68]	; 0x44
    29b4:	e58a0040 	str	r0, [sl, #64]	; 0x40
    29b8:	e58a3000 	str	r3, [sl]
    29bc:	eafffca8 	b	1c64 <zlib_inflate+0x420>
    29c0:	e51f01c8 	ldr	r0, [pc, #-456]	; 2800 <zlib_inflate+0xfbc>
    29c4:	e3a0101b 	mov	r1, #27
    29c8:	e59d4010 	ldr	r4, [sp, #16]
    29cc:	e1a03001 	mov	r3, r1
    29d0:	e08f0000 	add	r0, pc, r0
    29d4:	e5840018 	str	r0, [r4, #24]
    29d8:	e58a1000 	str	r1, [sl]
    29dc:	eafffc26 	b	1a7c <zlib_inflate+0x238>
    29e0:	e59d200c 	ldr	r2, [sp, #12]
    29e4:	e3a03000 	mov	r3, #0
    29e8:	e1a0c007 	mov	ip, r7
    29ec:	e1a0900b 	mov	r9, fp
    29f0:	e59d7010 	ldr	r7, [sp, #16]
    29f4:	e2722001 	rsbs	r2, r2, #1
    29f8:	e58d3018 	str	r3, [sp, #24]
    29fc:	33a02000 	movcc	r2, #0
    2a00:	e58d2014 	str	r2, [sp, #20]
    2a04:	eafffda0 	b	208c <zlib_inflate+0x848>
    2a08:	e59dc028 	ldr	ip, [sp, #40]	; 0x28
    2a0c:	e3a0301b 	mov	r3, #27
    2a10:	e59d4010 	ldr	r4, [sp, #16]
    2a14:	e584c018 	str	ip, [r4, #24]
    2a18:	e58a3000 	str	r3, [sl]
    2a1c:	eafffbb6 	b	18fc <zlib_inflate+0xb8>
    2a20:	e3520010 	cmp	r2, #16
    2a24:	0a000065 	beq	2bc0 <zlib_inflate+0x137c>
    2a28:	e3520011 	cmp	r2, #17
    2a2c:	0a00008f 	beq	2c70 <zlib_inflate+0x142c>
    2a30:	e2810007 	add	r0, r1, #7
    2a34:	e1560000 	cmp	r6, r0
    2a38:	2a00000c 	bcs	2a70 <zlib_inflate+0x122c>
    2a3c:	e3550000 	cmp	r5, #0
    2a40:	0affff96 	beq	28a0 <zlib_inflate+0x105c>
    2a44:	e1a03007 	mov	r3, r7
    2a48:	ea000001 	b	2a54 <zlib_inflate+0x1210>
    2a4c:	e3550000 	cmp	r5, #0
    2a50:	0affff92 	beq	28a0 <zlib_inflate+0x105c>
    2a54:	e4d32001 	ldrb	r2, [r3], #1
    2a58:	e2455001 	sub	r5, r5, #1
    2a5c:	e1a07003 	mov	r7, r3
    2a60:	e0888612 	add	r8, r8, r2, lsl r6
    2a64:	e2866008 	add	r6, r6, #8
    2a68:	e1560000 	cmp	r6, r0
    2a6c:	3afffff6 	bcc	2a4c <zlib_inflate+0x1208>
    2a70:	e1a08138 	lsr	r8, r8, r1
    2a74:	e30f3ff9 	movw	r3, #65529	; 0xfff9
    2a78:	e34f3fff 	movt	r3, #65535	; 0xffff
    2a7c:	e0613003 	rsb	r3, r1, r3
    2a80:	e208007f 	and	r0, r8, #127	; 0x7f
    2a84:	e1a083a8 	lsr	r8, r8, #7
    2a88:	e0866003 	add	r6, r6, r3
    2a8c:	e280000b 	add	r0, r0, #11
    2a90:	e3a01000 	mov	r1, #0
    2a94:	e0800004 	add	r0, r0, r4
    2a98:	e1500009 	cmp	r0, r9
    2a9c:	8a0000f2 	bhi	2e6c <zlib_inflate+0x1628>
    2aa0:	e59dc038 	ldr	ip, [sp, #56]	; 0x38
    2aa4:	e08a3084 	add	r3, sl, r4, lsl #1
    2aa8:	e6ff1071 	uxth	r1, r1
    2aac:	e283306a 	add	r3, r3, #106	; 0x6a
    2ab0:	e08c2080 	add	r2, ip, r0, lsl #1
    2ab4:	e1e310b2 	strh	r1, [r3, #2]!
    2ab8:	e1530002 	cmp	r3, r2
    2abc:	1afffffc 	bne	2ab4 <zlib_inflate+0x1270>
    2ac0:	e1a04000 	mov	r4, r0
    2ac4:	e58a0064 	str	r0, [sl, #100]	; 0x64
    2ac8:	eafffee0 	b	2650 <zlib_inflate+0xe0c>
    2acc:	e59d4010 	ldr	r4, [sp, #16]
    2ad0:	e1a0100b 	mov	r1, fp
    2ad4:	e59dc020 	ldr	ip, [sp, #32]
    2ad8:	e5847000 	str	r7, [r4]
    2adc:	e1a00004 	mov	r0, r4
    2ae0:	e584c00c 	str	ip, [r4, #12]
    2ae4:	e59dc008 	ldr	ip, [sp, #8]
    2ae8:	e5845004 	str	r5, [r4, #4]
    2aec:	e584c010 	str	ip, [r4, #16]
    2af0:	e58a8034 	str	r8, [sl, #52]	; 0x34
    2af4:	e58a6038 	str	r6, [sl, #56]	; 0x38
    2af8:	ebfff984 	bl	1110 <inflate_fast>
    2afc:	e594400c 	ldr	r4, [r4, #12]
    2b00:	e59dc010 	ldr	ip, [sp, #16]
    2b04:	e59a8034 	ldr	r8, [sl, #52]	; 0x34
    2b08:	e58d4020 	str	r4, [sp, #32]
    2b0c:	e59cc010 	ldr	ip, [ip, #16]
    2b10:	e59d4010 	ldr	r4, [sp, #16]
    2b14:	e59a6038 	ldr	r6, [sl, #56]	; 0x38
    2b18:	e58dc008 	str	ip, [sp, #8]
    2b1c:	e5947000 	ldr	r7, [r4]
    2b20:	e5945004 	ldr	r5, [r4, #4]
    2b24:	e59a3000 	ldr	r3, [sl]
    2b28:	eafffb73 	b	18fc <zlib_inflate+0xb8>
    2b2c:	e59d903c 	ldr	r9, [sp, #60]	; 0x3c
    2b30:	e59da040 	ldr	sl, [sp, #64]	; 0x40
    2b34:	eaffff5a 	b	28a4 <zlib_inflate+0x1060>
    2b38:	e59d4014 	ldr	r4, [sp, #20]
    2b3c:	e3a01009 	mov	r1, #9
    2b40:	e59dc02c 	ldr	ip, [sp, #44]	; 0x2c
    2b44:	e3a03005 	mov	r3, #5
    2b48:	e58a1050 	str	r1, [sl, #80]	; 0x50
    2b4c:	e3a01012 	mov	r1, #18
    2b50:	e2840c09 	add	r0, r4, #2304	; 0x900
    2b54:	e58a3054 	str	r3, [sl, #84]	; 0x54
    2b58:	e58ac048 	str	ip, [sl, #72]	; 0x48
    2b5c:	e1a03001 	mov	r3, r1
    2b60:	e58a004c 	str	r0, [sl, #76]	; 0x4c
    2b64:	e58a1000 	str	r1, [sl]
    2b68:	eafffbc3 	b	1a7c <zlib_inflate+0x238>
    2b6c:	e3a0300f 	mov	r3, #15
    2b70:	e58a3000 	str	r3, [sl]
    2b74:	eafffbc0 	b	1a7c <zlib_inflate+0x238>
    2b78:	e1a08338 	lsr	r8, r8, r3
    2b7c:	e0636006 	rsb	r6, r3, r6
    2b80:	e58a003c 	str	r0, [sl, #60]	; 0x3c
    2b84:	e3a03017 	mov	r3, #23
    2b88:	e58a3000 	str	r3, [sl]
    2b8c:	eafffb5a 	b	18fc <zlib_inflate+0xb8>
    2b90:	e208200f 	and	r2, r8, #15
    2b94:	e3520008 	cmp	r2, #8
    2b98:	0a000053 	beq	2cec <zlib_inflate+0x14a8>
    2b9c:	e51f13a0 	ldr	r1, [pc, #-928]	; 2804 <zlib_inflate+0xfc0>
    2ba0:	e08f1001 	add	r1, pc, r1
    2ba4:	eafffc80 	b	1dac <zlib_inflate+0x568>
    2ba8:	e3a06000 	mov	r6, #0
    2bac:	e3a0200e 	mov	r2, #14
    2bb0:	e1a08006 	mov	r8, r6
    2bb4:	e58a303c 	str	r3, [sl, #60]	; 0x3c
    2bb8:	e58a2000 	str	r2, [sl]
    2bbc:	eafffc81 	b	1dc8 <zlib_inflate+0x584>
    2bc0:	e2810002 	add	r0, r1, #2
    2bc4:	e1560000 	cmp	r6, r0
    2bc8:	2a00000c 	bcs	2c00 <zlib_inflate+0x13bc>
    2bcc:	e3550000 	cmp	r5, #0
    2bd0:	0affff32 	beq	28a0 <zlib_inflate+0x105c>
    2bd4:	e1a03007 	mov	r3, r7
    2bd8:	ea000001 	b	2be4 <zlib_inflate+0x13a0>
    2bdc:	e3550000 	cmp	r5, #0
    2be0:	0affff2e 	beq	28a0 <zlib_inflate+0x105c>
    2be4:	e4d32001 	ldrb	r2, [r3], #1
    2be8:	e2455001 	sub	r5, r5, #1
    2bec:	e1a07003 	mov	r7, r3
    2bf0:	e0888612 	add	r8, r8, r2, lsl r6
    2bf4:	e2866008 	add	r6, r6, #8
    2bf8:	e1560000 	cmp	r6, r0
    2bfc:	3afffff6 	bcc	2bdc <zlib_inflate+0x1398>
    2c00:	e3540000 	cmp	r4, #0
    2c04:	e1a08138 	lsr	r8, r8, r1
    2c08:	e0616006 	rsb	r6, r1, r6
    2c0c:	0a000088 	beq	2e34 <zlib_inflate+0x15f0>
    2c10:	e08a3084 	add	r3, sl, r4, lsl #1
    2c14:	e2080003 	and	r0, r8, #3
    2c18:	e2466002 	sub	r6, r6, #2
    2c1c:	e1a08128 	lsr	r8, r8, #2
    2c20:	e1d316ba 	ldrh	r1, [r3, #106]	; 0x6a
    2c24:	e2800003 	add	r0, r0, #3
    2c28:	eaffff99 	b	2a94 <zlib_inflate+0x1250>
    2c2c:	e1a08338 	lsr	r8, r8, r3
    2c30:	e0636006 	rsb	r6, r3, r6
    2c34:	e58a003c 	str	r0, [sl, #60]	; 0x3c
    2c38:	eaffff11 	b	2884 <zlib_inflate+0x1040>
    2c3c:	e59d400c 	ldr	r4, [sp, #12]
    2c40:	e1a0c007 	mov	ip, r7
    2c44:	e59d0024 	ldr	r0, [sp, #36]	; 0x24
    2c48:	e1a0900b 	mov	r9, fp
    2c4c:	e59d7010 	ldr	r7, [sp, #16]
    2c50:	e2744001 	rsbs	r4, r4, #1
    2c54:	33a04000 	movcc	r4, #0
    2c58:	e58d4014 	str	r4, [sp, #20]
    2c5c:	e3500002 	cmp	r0, #2
    2c60:	13a04000 	movne	r4, #0
    2c64:	02044001 	andeq	r4, r4, #1
    2c68:	e58d4018 	str	r4, [sp, #24]
    2c6c:	eafffd06 	b	208c <zlib_inflate+0x848>
    2c70:	e2810003 	add	r0, r1, #3
    2c74:	e1560000 	cmp	r6, r0
    2c78:	2a00000c 	bcs	2cb0 <zlib_inflate+0x146c>
    2c7c:	e3550000 	cmp	r5, #0
    2c80:	0affff06 	beq	28a0 <zlib_inflate+0x105c>
    2c84:	e1a03007 	mov	r3, r7
    2c88:	ea000001 	b	2c94 <zlib_inflate+0x1450>
    2c8c:	e3550000 	cmp	r5, #0
    2c90:	0affff02 	beq	28a0 <zlib_inflate+0x105c>
    2c94:	e4d32001 	ldrb	r2, [r3], #1
    2c98:	e2455001 	sub	r5, r5, #1
    2c9c:	e1a07003 	mov	r7, r3
    2ca0:	e0888612 	add	r8, r8, r2, lsl r6
    2ca4:	e2866008 	add	r6, r6, #8
    2ca8:	e1560000 	cmp	r6, r0
    2cac:	3afffff6 	bcc	2c8c <zlib_inflate+0x1448>
    2cb0:	e1a08138 	lsr	r8, r8, r1
    2cb4:	e30f3ffd 	movw	r3, #65533	; 0xfffd
    2cb8:	e34f3fff 	movt	r3, #65535	; 0xffff
    2cbc:	e0613003 	rsb	r3, r1, r3
    2cc0:	e2080007 	and	r0, r8, #7
    2cc4:	e0866003 	add	r6, r6, r3
    2cc8:	e2800003 	add	r0, r0, #3
    2ccc:	e1a081a8 	lsr	r8, r8, #3
    2cd0:	e3a01000 	mov	r1, #0
    2cd4:	eaffff6e 	b	2a94 <zlib_inflate+0x1250>
    2cd8:	e59d400c 	ldr	r4, [sp, #12]
    2cdc:	e3a03011 	mov	r3, #17
    2ce0:	e58a3000 	str	r3, [sl]
    2ce4:	e58a4064 	str	r4, [sl, #100]	; 0x64
    2ce8:	eafffe52 	b	2638 <zlib_inflate+0xdf4>
    2cec:	e1a08228 	lsr	r8, r8, #4
    2cf0:	e59a2020 	ldr	r2, [sl, #32]
    2cf4:	e208100f 	and	r1, r8, #15
    2cf8:	e2811008 	add	r1, r1, #8
    2cfc:	e1510002 	cmp	r1, r2
    2d00:	9a00003e 	bls	2e00 <zlib_inflate+0x15bc>
    2d04:	e51f1504 	ldr	r1, [pc, #-1284]	; 2808 <zlib_inflate+0xfc4>
    2d08:	e3a0201b 	mov	r2, #27
    2d0c:	e59d4010 	ldr	r4, [sp, #16]
    2d10:	e2466004 	sub	r6, r6, #4
    2d14:	e1a03002 	mov	r3, r2
    2d18:	e08f1001 	add	r1, pc, r1
    2d1c:	e5841018 	str	r1, [r4, #24]
    2d20:	e58a2000 	str	r2, [sl]
    2d24:	eafffaf4 	b	18fc <zlib_inflate+0xb8>
    2d28:	e201100f 	and	r1, r1, #15
    2d2c:	e3a03013 	mov	r3, #19
    2d30:	e58a1044 	str	r1, [sl, #68]	; 0x44
    2d34:	e58a3000 	str	r3, [sl]
    2d38:	eafffb59 	b	1aa4 <zlib_inflate+0x260>
    2d3c:	e1a0c007 	mov	ip, r7
    2d40:	e59d7010 	ldr	r7, [sp, #16]
    2d44:	e1a0900b 	mov	r9, fp
    2d48:	e3a0301a 	mov	r3, #26
    2d4c:	e3a02000 	mov	r2, #0
    2d50:	e58a3000 	str	r3, [sl]
    2d54:	e3a03001 	mov	r3, #1
    2d58:	e58d2018 	str	r2, [sp, #24]
    2d5c:	e58d2014 	str	r2, [sp, #20]
    2d60:	e58d300c 	str	r3, [sp, #12]
    2d64:	eafffcc8 	b	208c <zlib_inflate+0x848>
    2d68:	e59a3000 	ldr	r3, [sl]
    2d6c:	e353001b 	cmp	r3, #27
    2d70:	0afffae1 	beq	18fc <zlib_inflate+0xb8>
    2d74:	e28a3e52 	add	r3, sl, #1312	; 0x520
    2d78:	e3a01009 	mov	r1, #9
    2d7c:	e283300c 	add	r3, r3, #12
    2d80:	e28ac050 	add	ip, sl, #80	; 0x50
    2d84:	e28a4068 	add	r4, sl, #104	; 0x68
    2d88:	e28a9fbb 	add	r9, sl, #748	; 0x2ec
    2d8c:	e58a3068 	str	r3, [sl, #104]	; 0x68
    2d90:	e3a00001 	mov	r0, #1
    2d94:	e58a3048 	str	r3, [sl, #72]	; 0x48
    2d98:	e1a03004 	mov	r3, r4
    2d9c:	e58a1050 	str	r1, [sl, #80]	; 0x50
    2da0:	e28a106c 	add	r1, sl, #108	; 0x6c
    2da4:	e59d2034 	ldr	r2, [sp, #52]	; 0x34
    2da8:	e58d9004 	str	r9, [sp, #4]
    2dac:	e58dc000 	str	ip, [sp]
    2db0:	ebfff777 	bl	b94 <zlib_inflate_table>
    2db4:	e3500000 	cmp	r0, #0
    2db8:	e58d000c 	str	r0, [sp, #12]
    2dbc:	0a00003a 	beq	2eac <zlib_inflate+0x1668>
    2dc0:	e51f15bc 	ldr	r1, [pc, #-1468]	; 280c <zlib_inflate+0xfc8>
    2dc4:	e08f1001 	add	r1, pc, r1
    2dc8:	eafffc7b 	b	1fbc <zlib_inflate+0x778>
    2dcc:	e1a0c007 	mov	ip, r7
    2dd0:	e59d4020 	ldr	r4, [sp, #32]
    2dd4:	e59d7010 	ldr	r7, [sp, #16]
    2dd8:	e3a03002 	mov	r3, #2
    2ddc:	e58d300c 	str	r3, [sp, #12]
    2de0:	e587400c 	str	r4, [r7, #12]
    2de4:	e59d4008 	ldr	r4, [sp, #8]
    2de8:	e587c000 	str	ip, [r7]
    2dec:	e5875004 	str	r5, [r7, #4]
    2df0:	e5874010 	str	r4, [r7, #16]
    2df4:	e58a8034 	str	r8, [sl, #52]	; 0x34
    2df8:	e58a6038 	str	r6, [sl, #56]	; 0x38
    2dfc:	eafffc76 	b	1fdc <zlib_inflate+0x798>
    2e00:	e3a02001 	mov	r2, #1
    2e04:	e59dc010 	ldr	ip, [sp, #16]
    2e08:	e3180c02 	tst	r8, #512	; 0x200
    2e0c:	e1a01112 	lsl	r1, r2, r1
    2e10:	e1a06003 	mov	r6, r3
    2e14:	e58a2018 	str	r2, [sl, #24]
    2e18:	03a0300b 	moveq	r3, #11
    2e1c:	13a03009 	movne	r3, #9
    2e20:	e58a1014 	str	r1, [sl, #20]
    2e24:	e1a08006 	mov	r8, r6
    2e28:	e58c2028 	str	r2, [ip, #40]	; 0x28
    2e2c:	e58a3000 	str	r3, [sl]
    2e30:	eafffab1 	b	18fc <zlib_inflate+0xb8>
    2e34:	e51f262c 	ldr	r2, [pc, #-1580]	; 2810 <zlib_inflate+0xfcc>
    2e38:	e3a0301b 	mov	r3, #27
    2e3c:	e59dc010 	ldr	ip, [sp, #16]
    2e40:	e08f2002 	add	r2, pc, r2
    2e44:	e58c2018 	str	r2, [ip, #24]
    2e48:	e58a3000 	str	r3, [sl]
    2e4c:	e3a0301b 	mov	r3, #27
    2e50:	eafffaa9 	b	18fc <zlib_inflate+0xb8>
    2e54:	e3a06000 	mov	r6, #0
    2e58:	e1a0c007 	mov	ip, r7
    2e5c:	e59d9008 	ldr	r9, [sp, #8]
    2e60:	e1a08006 	mov	r8, r6
    2e64:	e59d7010 	ldr	r7, [sp, #16]
    2e68:	eaffffb6 	b	2d48 <zlib_inflate+0x1504>
    2e6c:	e51f2660 	ldr	r2, [pc, #-1632]	; 2814 <zlib_inflate+0xfd0>
    2e70:	e3a0301b 	mov	r3, #27
    2e74:	e59d4010 	ldr	r4, [sp, #16]
    2e78:	e08f2002 	add	r2, pc, r2
    2e7c:	e5842018 	str	r2, [r4, #24]
    2e80:	e58a3000 	str	r3, [sl]
    2e84:	eafffff0 	b	2e4c <zlib_inflate+0x1608>
    2e88:	e5972004 	ldr	r2, [r7, #4]
    2e8c:	e59d401c 	ldr	r4, [sp, #28]
    2e90:	e58d3008 	str	r3, [sp, #8]
    2e94:	e5973008 	ldr	r3, [r7, #8]
    2e98:	e0622004 	rsb	r2, r2, r4
    2e9c:	e58d2010 	str	r2, [sp, #16]
    2ea0:	e0833002 	add	r3, r3, r2
    2ea4:	e5873008 	str	r3, [r7, #8]
    2ea8:	eafffd05 	b	22c4 <zlib_inflate+0xa80>
    2eac:	e59a105c 	ldr	r1, [sl, #92]	; 0x5c
    2eb0:	e3a0c006 	mov	ip, #6
    2eb4:	e59a0068 	ldr	r0, [sl, #104]	; 0x68
    2eb8:	e1a03004 	mov	r3, r4
    2ebc:	e59a2060 	ldr	r2, [sl, #96]	; 0x60
    2ec0:	e58ac054 	str	ip, [sl, #84]	; 0x54
    2ec4:	e08a1081 	add	r1, sl, r1, lsl #1
    2ec8:	e58a004c 	str	r0, [sl, #76]	; 0x4c
    2ecc:	e28a0054 	add	r0, sl, #84	; 0x54
    2ed0:	e58d9004 	str	r9, [sp, #4]
    2ed4:	e58d0000 	str	r0, [sp]
    2ed8:	e281106c 	add	r1, r1, #108	; 0x6c
    2edc:	e3a00002 	mov	r0, #2
    2ee0:	ebfff72b 	bl	b94 <zlib_inflate_table>
    2ee4:	e3500000 	cmp	r0, #0
    2ee8:	e58d000c 	str	r0, [sp, #12]
    2eec:	0afffdfe 	beq	26ec <zlib_inflate+0xea8>
    2ef0:	e51f16e0 	ldr	r1, [pc, #-1760]	; 2818 <zlib_inflate+0xfd4>
    2ef4:	e08f1001 	add	r1, pc, r1
    2ef8:	eafffbab 	b	1dac <zlib_inflate+0x568>

00002efc <zlib_inflateEnd>:
    2efc:	e3500000 	cmp	r0, #0
    2f00:	0a000004 	beq	2f18 <zlib_inflateEnd+0x1c>
    2f04:	e590301c 	ldr	r3, [r0, #28]
    2f08:	e3530000 	cmp	r3, #0
    2f0c:	0a000001 	beq	2f18 <zlib_inflateEnd+0x1c>
    2f10:	e3a00000 	mov	r0, #0
    2f14:	e12fff1e 	bx	lr
    2f18:	e3e00001 	mvn	r0, #1
    2f1c:	e12fff1e 	bx	lr

00002f20 <zlib_inflateIncomp>:
    2f20:	e92d4ff0 	push	{r4, r5, r6, r7, r8, r9, sl, fp, lr}
    2f24:	e24dd00c 	sub	sp, sp, #12
    2f28:	e590201c 	ldr	r2, [r0, #28]
    2f2c:	e1a08000 	mov	r8, r0
    2f30:	e590400c 	ldr	r4, [r0, #12]
    2f34:	e5923000 	ldr	r3, [r2]
    2f38:	e58d2004 	str	r2, [sp, #4]
    2f3c:	e5905010 	ldr	r5, [r0, #16]
    2f40:	e3530000 	cmp	r3, #0
    2f44:	1353000b 	cmpne	r3, #11
    2f48:	03a03000 	moveq	r3, #0
    2f4c:	13a03001 	movne	r3, #1
    2f50:	1a000081 	bne	315c <zlib_inflateIncomp+0x23c>
    2f54:	e5902004 	ldr	r2, [r0, #4]
    2f58:	e590c000 	ldr	ip, [r0]
    2f5c:	e5803010 	str	r3, [r0, #16]
    2f60:	e1a01002 	mov	r1, r2
    2f64:	e08c2002 	add	r2, ip, r2
    2f68:	e580200c 	str	r2, [r0, #12]
    2f6c:	ebfff6d6 	bl	acc <zlib_updatewindow>
    2f70:	e59d3004 	ldr	r3, [sp, #4]
    2f74:	e5986000 	ldr	r6, [r8]
    2f78:	e5885010 	str	r5, [r8, #16]
    2f7c:	e588400c 	str	r4, [r8, #12]
    2f80:	e5931018 	ldr	r1, [r3, #24]
    2f84:	e3560000 	cmp	r6, #0
    2f88:	e5980004 	ldr	r0, [r8, #4]
    2f8c:	e6ffc071 	uxth	ip, r1
    2f90:	e1a01821 	lsr	r1, r1, #16
    2f94:	03a01001 	moveq	r1, #1
    2f98:	0a000059 	beq	3104 <zlib_inflateIncomp+0x1e4>
    2f9c:	e3500000 	cmp	r0, #0
    2fa0:	0a000056 	beq	3100 <zlib_inflateIncomp+0x1e0>
    2fa4:	e308a071 	movw	sl, #32881	; 0x8071
    2fa8:	e348a007 	movt	sl, #32775	; 0x8007
    2fac:	e30175b0 	movw	r7, #5552	; 0x15b0
    2fb0:	e1500007 	cmp	r0, r7
    2fb4:	31a07000 	movcc	r7, r0
    2fb8:	e357000f 	cmp	r7, #15
    2fbc:	e0670000 	rsb	r0, r7, r0
    2fc0:	e1a02007 	mov	r2, r7
    2fc4:	da000039 	ble	30b0 <zlib_inflateIncomp+0x190>
    2fc8:	e1a03006 	mov	r3, r6
    2fcc:	e5d39000 	ldrb	r9, [r3]
    2fd0:	e2422010 	sub	r2, r2, #16
    2fd4:	e5d35001 	ldrb	r5, [r3, #1]
    2fd8:	e352000f 	cmp	r2, #15
    2fdc:	e5d34002 	ldrb	r4, [r3, #2]
    2fe0:	e5d3b003 	ldrb	fp, [r3, #3]
    2fe4:	e08c9009 	add	r9, ip, r9
    2fe8:	e089c005 	add	ip, r9, r5
    2fec:	e5d35004 	ldrb	r5, [r3, #4]
    2ff0:	e08c4004 	add	r4, ip, r4
    2ff4:	e08c9009 	add	r9, ip, r9
    2ff8:	e0899004 	add	r9, r9, r4
    2ffc:	e084c00b 	add	ip, r4, fp
    3000:	e5d34005 	ldrb	r4, [r3, #5]
    3004:	e089900c 	add	r9, r9, ip
    3008:	e5d3b006 	ldrb	fp, [r3, #6]
    300c:	e08cc005 	add	ip, ip, r5
    3010:	e5d35007 	ldrb	r5, [r3, #7]
    3014:	e089900c 	add	r9, r9, ip
    3018:	e08cc004 	add	ip, ip, r4
    301c:	e5d34008 	ldrb	r4, [r3, #8]
    3020:	e089900c 	add	r9, r9, ip
    3024:	e08cc00b 	add	ip, ip, fp
    3028:	e08c5005 	add	r5, ip, r5
    302c:	e089900c 	add	r9, r9, ip
    3030:	e5d3c009 	ldrb	ip, [r3, #9]
    3034:	e0899005 	add	r9, r9, r5
    3038:	e5d3b00a 	ldrb	fp, [r3, #10]
    303c:	e0855004 	add	r5, r5, r4
    3040:	e5d3400b 	ldrb	r4, [r3, #11]
    3044:	e0899005 	add	r9, r9, r5
    3048:	e085500c 	add	r5, r5, ip
    304c:	e5d3c00c 	ldrb	ip, [r3, #12]
    3050:	e0899005 	add	r9, r9, r5
    3054:	e085500b 	add	r5, r5, fp
    3058:	e0854004 	add	r4, r5, r4
    305c:	e0899005 	add	r9, r9, r5
    3060:	e5d3b00d 	ldrb	fp, [r3, #13]
    3064:	e0899004 	add	r9, r9, r4
    3068:	e084400c 	add	r4, r4, ip
    306c:	e5d3c00e 	ldrb	ip, [r3, #14]
    3070:	e5d3500f 	ldrb	r5, [r3, #15]
    3074:	e0899004 	add	r9, r9, r4
    3078:	e084400b 	add	r4, r4, fp
    307c:	e2833010 	add	r3, r3, #16
    3080:	e084c00c 	add	ip, r4, ip
    3084:	e0899004 	add	r9, r9, r4
    3088:	e089900c 	add	r9, r9, ip
    308c:	e08cc005 	add	ip, ip, r5
    3090:	e089900c 	add	r9, r9, ip
    3094:	e0811009 	add	r1, r1, r9
    3098:	caffffcb 	bgt	2fcc <zlib_inflateIncomp+0xac>
    309c:	e2472010 	sub	r2, r7, #16
    30a0:	e1a03222 	lsr	r3, r2, #4
    30a4:	e2834001 	add	r4, r3, #1
    30a8:	e0422203 	sub	r2, r2, r3, lsl #4
    30ac:	e0866204 	add	r6, r6, r4, lsl #4
    30b0:	e3520000 	cmp	r2, #0
    30b4:	0a000005 	beq	30d0 <zlib_inflateIncomp+0x1b0>
    30b8:	e0862002 	add	r2, r6, r2
    30bc:	e4d63001 	ldrb	r3, [r6], #1
    30c0:	e1560002 	cmp	r6, r2
    30c4:	e08cc003 	add	ip, ip, r3
    30c8:	e081100c 	add	r1, r1, ip
    30cc:	1afffffa 	bne	30bc <zlib_inflateIncomp+0x19c>
    30d0:	e0824c9a 	umull	r4, r2, sl, ip
    30d4:	e3500000 	cmp	r0, #0
    30d8:	e083419a 	umull	r4, r3, sl, r1
    30dc:	e1a027a2 	lsr	r2, r2, #15
    30e0:	e0624602 	rsb	r4, r2, r2, lsl #12
    30e4:	e1a037a3 	lsr	r3, r3, #15
    30e8:	e0822204 	add	r2, r2, r4, lsl #4
    30ec:	e0634603 	rsb	r4, r3, r3, lsl #12
    30f0:	e062c00c 	rsb	ip, r2, ip
    30f4:	e0833204 	add	r3, r3, r4, lsl #4
    30f8:	e0631001 	rsb	r1, r3, r1
    30fc:	1affffaa 	bne	2fac <zlib_inflateIncomp+0x8c>
    3100:	e18c1801 	orr	r1, ip, r1, lsl #16
    3104:	e59dc004 	ldr	ip, [sp, #4]
    3108:	e3a02000 	mov	r2, #0
    310c:	e1a00002 	mov	r0, r2
    3110:	e58c1018 	str	r1, [ip, #24]
    3114:	e5983004 	ldr	r3, [r8, #4]
    3118:	e5984000 	ldr	r4, [r8]
    311c:	e5985014 	ldr	r5, [r8, #20]
    3120:	e598c008 	ldr	ip, [r8, #8]
    3124:	e5881028 	str	r1, [r8, #40]	; 0x28
    3128:	e0841003 	add	r1, r4, r3
    312c:	e59d4004 	ldr	r4, [sp, #4]
    3130:	e0855003 	add	r5, r5, r3
    3134:	e08cc003 	add	ip, ip, r3
    3138:	e5885014 	str	r5, [r8, #20]
    313c:	e588c008 	str	ip, [r8, #8]
    3140:	e5881000 	str	r1, [r8]
    3144:	e594101c 	ldr	r1, [r4, #28]
    3148:	e0813003 	add	r3, r1, r3
    314c:	e584301c 	str	r3, [r4, #28]
    3150:	e5882004 	str	r2, [r8, #4]
    3154:	e28dd00c 	add	sp, sp, #12
    3158:	e8bd8ff0 	pop	{r4, r5, r6, r7, r8, r9, sl, fp, pc}
    315c:	e3e00002 	mvn	r0, #2
    3160:	eafffffb 	b	3154 <zlib_inflateIncomp+0x234>

00003164 <do_decompress>:
    3164:	e92d47f0 	push	{r4, r5, r6, r7, r8, r9, sl, lr}
    3168:	e2529000 	subs	r9, r2, #0
    316c:	e59f42bc 	ldr	r4, [pc, #700]	; 3430 <do_decompress+0x2cc>
    3170:	e1a05000 	mov	r5, r0
    3174:	e1a06001 	mov	r6, r1
    3178:	e1a08003 	mov	r8, r3
    317c:	e08f4004 	add	r4, pc, r4
    3180:	0a000099 	beq	33ec <do_decompress+0x288>
    3184:	e3500000 	cmp	r0, #0
    3188:	11a0a000 	movne	sl, r0
    318c:	0a00007f 	beq	3390 <do_decompress+0x22c>
    3190:	e3a00030 	mov	r0, #48	; 0x30
    3194:	ebfff625 	bl	a30 <malloc>
    3198:	e2507000 	subs	r7, r0, #0
    319c:	0a000085 	beq	33b8 <do_decompress+0x254>
    31a0:	e302052c 	movw	r0, #9516	; 0x252c
    31a4:	ebfff621 	bl	a30 <malloc>
    31a8:	e3500000 	cmp	r0, #0
    31ac:	e5870020 	str	r0, [r7, #32]
    31b0:	0a000085 	beq	33cc <do_decompress+0x268>
    31b4:	e3560000 	cmp	r6, #0
    31b8:	0a00006f 	beq	337c <do_decompress+0x218>
    31bc:	e3560009 	cmp	r6, #9
    31c0:	ca000030 	bgt	3288 <do_decompress+0x124>
    31c4:	e59f0268 	ldr	r0, [pc, #616]	; 3434 <do_decompress+0x2d0>
    31c8:	e3e06000 	mvn	r6, #0
    31cc:	e08f0000 	add	r0, pc, r0
    31d0:	e12fff38 	blx	r8
    31d4:	e59f325c 	ldr	r3, [pc, #604]	; 3438 <do_decompress+0x2d4>
    31d8:	e7943003 	ldr	r3, [r4, r3]
    31dc:	e5932000 	ldr	r2, [r3]
    31e0:	e2422001 	sub	r2, r2, #1
    31e4:	e3520000 	cmp	r2, #0
    31e8:	e5832000 	str	r2, [r3]
    31ec:	0a00000d 	beq	3228 <do_decompress+0xc4>
    31f0:	e2422001 	sub	r2, r2, #1
    31f4:	e3520000 	cmp	r2, #0
    31f8:	e5832000 	str	r2, [r3]
    31fc:	1a000005 	bne	3218 <do_decompress+0xb4>
    3200:	e59f2234 	ldr	r2, [pc, #564]	; 343c <do_decompress+0x2d8>
    3204:	e59f3234 	ldr	r3, [pc, #564]	; 3440 <do_decompress+0x2dc>
    3208:	e7942002 	ldr	r2, [r4, r2]
    320c:	e7943003 	ldr	r3, [r4, r3]
    3210:	e5922000 	ldr	r2, [r2]
    3214:	e5832000 	str	r2, [r3]
    3218:	e3550000 	cmp	r5, #0
    321c:	0a00000b 	beq	3250 <do_decompress+0xec>
    3220:	e1a00006 	mov	r0, r6
    3224:	e8bd87f0 	pop	{r4, r5, r6, r7, r8, r9, sl, pc}
    3228:	e59f120c 	ldr	r1, [pc, #524]	; 343c <do_decompress+0x2d8>
    322c:	e3e00000 	mvn	r0, #0
    3230:	e59f2208 	ldr	r2, [pc, #520]	; 3440 <do_decompress+0x2dc>
    3234:	e3550000 	cmp	r5, #0
    3238:	e7941001 	ldr	r1, [r4, r1]
    323c:	e7942002 	ldr	r2, [r4, r2]
    3240:	e5830000 	str	r0, [r3]
    3244:	e5913000 	ldr	r3, [r1]
    3248:	e5823000 	str	r3, [r2]
    324c:	1afffff3 	bne	3220 <do_decompress+0xbc>
    3250:	e59f31e0 	ldr	r3, [pc, #480]	; 3438 <do_decompress+0x2d4>
    3254:	e7943003 	ldr	r3, [r4, r3]
    3258:	e5932000 	ldr	r2, [r3]
    325c:	e2422001 	sub	r2, r2, #1
    3260:	e3520000 	cmp	r2, #0
    3264:	e5832000 	str	r2, [r3]
    3268:	1affffec 	bne	3220 <do_decompress+0xbc>
    326c:	e59f21c8 	ldr	r2, [pc, #456]	; 343c <do_decompress+0x2d8>
    3270:	e59f31c8 	ldr	r3, [pc, #456]	; 3440 <do_decompress+0x2dc>
    3274:	e7942002 	ldr	r2, [r4, r2]
    3278:	e7943003 	ldr	r3, [r4, r3]
    327c:	e5922000 	ldr	r2, [r2]
    3280:	e5832000 	str	r2, [r3]
    3284:	eaffffe5 	b	3220 <do_decompress+0xbc>
    3288:	e5da3000 	ldrb	r3, [sl]
    328c:	e353001f 	cmp	r3, #31
    3290:	1affffcb 	bne	31c4 <do_decompress+0x60>
    3294:	e5da3001 	ldrb	r3, [sl, #1]
    3298:	e353008b 	cmp	r3, #139	; 0x8b
    329c:	1affffc8 	bne	31c4 <do_decompress+0x60>
    32a0:	e5da3002 	ldrb	r3, [sl, #2]
    32a4:	e3530008 	cmp	r3, #8
    32a8:	1affffc5 	bne	31c4 <do_decompress+0x60>
    32ac:	e28a300a 	add	r3, sl, #10
    32b0:	e246600a 	sub	r6, r6, #10
    32b4:	e8870048 	stm	r7, {r3, r6}
    32b8:	e5da3003 	ldrb	r3, [sl, #3]
    32bc:	e3130008 	tst	r3, #8
    32c0:	0a000008 	beq	32e8 <do_decompress+0x184>
    32c4:	e3560000 	cmp	r6, #0
    32c8:	e2466001 	sub	r6, r6, #1
    32cc:	0a00004b 	beq	3400 <do_decompress+0x29c>
    32d0:	e5973000 	ldr	r3, [r7]
    32d4:	e5876004 	str	r6, [r7, #4]
    32d8:	e4d32001 	ldrb	r2, [r3], #1
    32dc:	e3520000 	cmp	r2, #0
    32e0:	e5873000 	str	r3, [r7]
    32e4:	1afffff6 	bne	32c4 <do_decompress+0x160>
    32e8:	e3e03102 	mvn	r3, #-2147483648	; 0x80000000
    32ec:	e587900c 	str	r9, [r7, #12]
    32f0:	e5873010 	str	r3, [r7, #16]
    32f4:	e1a00007 	mov	r0, r7
    32f8:	e3e0100e 	mvn	r1, #14
    32fc:	ebfff938 	bl	17e4 <zlib_inflateInit2>
    3300:	e5972020 	ldr	r2, [r7, #32]
    3304:	e3a03000 	mov	r3, #0
    3308:	e2506000 	subs	r6, r0, #0
    330c:	e5823024 	str	r3, [r2, #36]	; 0x24
    3310:	e5972020 	ldr	r2, [r7, #32]
    3314:	e5823030 	str	r3, [r2, #48]	; 0x30
    3318:	1a000014 	bne	3370 <do_decompress+0x20c>
    331c:	e5973004 	ldr	r3, [r7, #4]
    3320:	e3a01901 	mov	r1, #16384	; 0x4000
    3324:	e1a0000a 	mov	r0, sl
    3328:	e3530000 	cmp	r3, #0
    332c:	1a000004 	bne	3344 <do_decompress+0x1e0>
    3330:	ebfff5e3 	bl	ac4 <nofill>
    3334:	e3500000 	cmp	r0, #0
    3338:	ba000035 	blt	3414 <do_decompress+0x2b0>
    333c:	e587a000 	str	sl, [r7]
    3340:	e5870004 	str	r0, [r7, #4]
    3344:	e1a00007 	mov	r0, r7
    3348:	e3a01000 	mov	r1, #0
    334c:	ebfff93c 	bl	1844 <zlib_inflate>
    3350:	e3500001 	cmp	r0, #1
    3354:	0a000005 	beq	3370 <do_decompress+0x20c>
    3358:	e3500000 	cmp	r0, #0
    335c:	0affffee 	beq	331c <do_decompress+0x1b8>
    3360:	e59f00dc 	ldr	r0, [pc, #220]	; 3444 <do_decompress+0x2e0>
    3364:	e3e06000 	mvn	r6, #0
    3368:	e08f0000 	add	r0, pc, r0
    336c:	e12fff38 	blx	r8
    3370:	e1a00007 	mov	r0, r7
    3374:	ebfffee0 	bl	2efc <zlib_inflateEnd>
    3378:	eaffff95 	b	31d4 <do_decompress+0x70>
    337c:	e1a0000a 	mov	r0, sl
    3380:	e3a01901 	mov	r1, #16384	; 0x4000
    3384:	ebfff5ce 	bl	ac4 <nofill>
    3388:	e1a06000 	mov	r6, r0
    338c:	eaffff8a 	b	31bc <do_decompress+0x58>
    3390:	e3a00901 	mov	r0, #16384	; 0x4000
    3394:	ebfff5a5 	bl	a30 <malloc>
    3398:	e250a000 	subs	sl, r0, #0
    339c:	1a000021 	bne	3428 <do_decompress+0x2c4>
    33a0:	e59f00a0 	ldr	r0, [pc, #160]	; 3448 <do_decompress+0x2e4>
    33a4:	e3e06000 	mvn	r6, #0
    33a8:	e08f0000 	add	r0, pc, r0
    33ac:	e12fff38 	blx	r8
    33b0:	e1a00006 	mov	r0, r6
    33b4:	e8bd87f0 	pop	{r4, r5, r6, r7, r8, r9, sl, pc}
    33b8:	e59f008c 	ldr	r0, [pc, #140]	; 344c <do_decompress+0x2e8>
    33bc:	e3e06000 	mvn	r6, #0
    33c0:	e08f0000 	add	r0, pc, r0
    33c4:	e12fff38 	blx	r8
    33c8:	eaffff92 	b	3218 <do_decompress+0xb4>
    33cc:	e59f007c 	ldr	r0, [pc, #124]	; 3450 <do_decompress+0x2ec>
    33d0:	e3e06000 	mvn	r6, #0
    33d4:	e08f0000 	add	r0, pc, r0
    33d8:	e12fff38 	blx	r8
    33dc:	e59f3054 	ldr	r3, [pc, #84]	; 3438 <do_decompress+0x2d4>
    33e0:	e7943003 	ldr	r3, [r4, r3]
    33e4:	e5932000 	ldr	r2, [r3]
    33e8:	eaffff80 	b	31f0 <do_decompress+0x8c>
    33ec:	e59f0060 	ldr	r0, [pc, #96]	; 3454 <do_decompress+0x2f0>
    33f0:	e3e06000 	mvn	r6, #0
    33f4:	e08f0000 	add	r0, pc, r0
    33f8:	e12fff33 	blx	r3
    33fc:	eaffff87 	b	3220 <do_decompress+0xbc>
    3400:	e59f0050 	ldr	r0, [pc, #80]	; 3458 <do_decompress+0x2f4>
    3404:	e3e06000 	mvn	r6, #0
    3408:	e08f0000 	add	r0, pc, r0
    340c:	e12fff38 	blx	r8
    3410:	eaffff6f 	b	31d4 <do_decompress+0x70>
    3414:	e59f0040 	ldr	r0, [pc, #64]	; 345c <do_decompress+0x2f8>
    3418:	e3e06000 	mvn	r6, #0
    341c:	e08f0000 	add	r0, pc, r0
    3420:	e12fff38 	blx	r8
    3424:	eaffffd1 	b	3370 <do_decompress+0x20c>
    3428:	e1a06005 	mov	r6, r5
    342c:	eaffff57 	b	3190 <do_decompress+0x2c>
    3430:	0026c3d0 	.word	0x0026c3d0
    3434:	00003258 	.word	0x00003258
    3438:	0000000c 	.word	0x0000000c
    343c:	00000020 	.word	0x00000020
    3440:	00000004 	.word	0x00000004
    3444:	000030e8 	.word	0x000030e8
    3448:	00002ffc 	.word	0x00002ffc
    344c:	00003010 	.word	0x00003010
    3450:	00003024 	.word	0x00003024
    3454:	00002f80 	.word	0x00002f80
    3458:	0000302c 	.word	0x0000302c
    345c:	00003028 	.word	0x00003028

00003460 <memcpy>:
    3460:	e92d4070 	push	{r4, r5, r6, lr}
    3464:	e1a041a2 	lsr	r4, r2, #3
    3468:	e1a0c001 	mov	ip, r1
    346c:	e1a03000 	mov	r3, r0
    3470:	e1a05004 	mov	r5, r4
    3474:	ea000012 	b	34c4 <memcpy+0x64>
    3478:	e5dc6000 	ldrb	r6, [ip]
    347c:	e2455001 	sub	r5, r5, #1
    3480:	e5c36000 	strb	r6, [r3]
    3484:	e5dc6001 	ldrb	r6, [ip, #1]
    3488:	e5c36001 	strb	r6, [r3, #1]
    348c:	e5dc6002 	ldrb	r6, [ip, #2]
    3490:	e5c36002 	strb	r6, [r3, #2]
    3494:	e5dc6003 	ldrb	r6, [ip, #3]
    3498:	e5c36003 	strb	r6, [r3, #3]
    349c:	e5dc6004 	ldrb	r6, [ip, #4]
    34a0:	e5c36004 	strb	r6, [r3, #4]
    34a4:	e5dc6005 	ldrb	r6, [ip, #5]
    34a8:	e5c36005 	strb	r6, [r3, #5]
    34ac:	e5dc6006 	ldrb	r6, [ip, #6]
    34b0:	e5c36006 	strb	r6, [r3, #6]
    34b4:	e5dc6007 	ldrb	r6, [ip, #7]
    34b8:	e28cc008 	add	ip, ip, #8
    34bc:	e5c36007 	strb	r6, [r3, #7]
    34c0:	e2833008 	add	r3, r3, #8
    34c4:	e3550000 	cmp	r5, #0
    34c8:	caffffea 	bgt	3478 <memcpy+0x18>
    34cc:	e1c44fc4 	bic	r4, r4, r4, asr #31
    34d0:	e3120004 	tst	r2, #4
    34d4:	e1a0c184 	lsl	ip, r4, #3
    34d8:	e080300c 	add	r3, r0, ip
    34dc:	e081c00c 	add	ip, r1, ip
    34e0:	0a000009 	beq	350c <memcpy+0xac>
    34e4:	e7d11184 	ldrb	r1, [r1, r4, lsl #3]
    34e8:	e7c01184 	strb	r1, [r0, r4, lsl #3]
    34ec:	e5dc1001 	ldrb	r1, [ip, #1]
    34f0:	e5c31001 	strb	r1, [r3, #1]
    34f4:	e5dc1002 	ldrb	r1, [ip, #2]
    34f8:	e5c31002 	strb	r1, [r3, #2]
    34fc:	e5dc1003 	ldrb	r1, [ip, #3]
    3500:	e28cc004 	add	ip, ip, #4
    3504:	e5c31003 	strb	r1, [r3, #3]
    3508:	e2833004 	add	r3, r3, #4
    350c:	e3120002 	tst	r2, #2
    3510:	0a000005 	beq	352c <memcpy+0xcc>
    3514:	e5dc1000 	ldrb	r1, [ip]
    3518:	e5c31000 	strb	r1, [r3]
    351c:	e5dc1001 	ldrb	r1, [ip, #1]
    3520:	e28cc002 	add	ip, ip, #2
    3524:	e5c31001 	strb	r1, [r3, #1]
    3528:	e2833002 	add	r3, r3, #2
    352c:	e3120001 	tst	r2, #1
    3530:	15dc2000 	ldrbne	r2, [ip]
    3534:	15c32000 	strbne	r2, [r3]
    3538:	e8bd8070 	pop	{r4, r5, r6, pc}

0000353c <memmove>:
    353c:	e1500001 	cmp	r0, r1
    3540:	e92d4010 	push	{r4, lr}
    3544:	e1a0c000 	mov	ip, r0
    3548:	e1a04001 	mov	r4, r1
    354c:	e1a03002 	mov	r3, r2
    3550:	0a000006 	beq	3570 <memmove+0x34>
    3554:	2a000003 	bcs	3568 <memmove+0x2c>
    3558:	e8bd4010 	pop	{r4, lr}
    355c:	eaffffbf 	b	3460 <memcpy>
    3560:	e7d42003 	ldrb	r2, [r4, r3]
    3564:	e7cc2003 	strb	r2, [ip, r3]
    3568:	e2533001 	subs	r3, r3, #1
    356c:	2afffffb 	bcs	3560 <memmove+0x24>
    3570:	e1a0000c 	mov	r0, ip
    3574:	e8bd8010 	pop	{r4, pc}

00003578 <strlen>:
    3578:	e1a03000 	mov	r3, r0
    357c:	e1a02003 	mov	r2, r3
    3580:	e2833001 	add	r3, r3, #1
    3584:	e5d21000 	ldrb	r1, [r2]
    3588:	e3510000 	cmp	r1, #0
    358c:	1afffffa 	bne	357c <strlen+0x4>
    3590:	e0600002 	rsb	r0, r0, r2
    3594:	e12fff1e 	bx	lr

00003598 <memcmp>:
    3598:	e92d4010 	push	{r4, lr}
    359c:	e1a0c000 	mov	ip, r0
    35a0:	e0802002 	add	r2, r0, r2
    35a4:	e3a03000 	mov	r3, #0
    35a8:	ea000004 	b	35c0 <memcmp+0x28>
    35ac:	e7dc4003 	ldrb	r4, [ip, r3]
    35b0:	e7d10003 	ldrb	r0, [r1, r3]
    35b4:	e2833001 	add	r3, r3, #1
    35b8:	e0540000 	subs	r0, r4, r0
    35bc:	18bd8010 	popne	{r4, pc}
    35c0:	e08c0003 	add	r0, ip, r3
    35c4:	e1520000 	cmp	r2, r0
    35c8:	8afffff7 	bhi	35ac <memcmp+0x14>
    35cc:	e3a00000 	mov	r0, #0
    35d0:	e8bd8010 	pop	{r4, pc}

000035d4 <strcmp>:
    35d4:	e3a03000 	mov	r3, #0
    35d8:	e7d02003 	ldrb	r2, [r0, r3]
    35dc:	e7d1c003 	ldrb	ip, [r1, r3]
    35e0:	e052c00c 	subs	ip, r2, ip
    35e4:	1a000002 	bne	35f4 <strcmp+0x20>
    35e8:	e3520000 	cmp	r2, #0
    35ec:	e2833001 	add	r3, r3, #1
    35f0:	1afffff8 	bne	35d8 <strcmp+0x4>
    35f4:	e1a0000c 	mov	r0, ip
    35f8:	e12fff1e 	bx	lr

000035fc <memchr>:
    35fc:	e0802002 	add	r2, r0, r2
    3600:	e6ef1071 	uxtb	r1, r1
    3604:	ea000004 	b	361c <memchr+0x20>
    3608:	e5d0c000 	ldrb	ip, [r0]
    360c:	e2803001 	add	r3, r0, #1
    3610:	e15c0001 	cmp	ip, r1
    3614:	012fff1e 	bxeq	lr
    3618:	e1a00003 	mov	r0, r3
    361c:	e1500002 	cmp	r0, r2
    3620:	1afffff8 	bne	3608 <memchr+0xc>
    3624:	e3a00000 	mov	r0, #0
    3628:	e12fff1e 	bx	lr

0000362c <strchr>:
    362c:	e6ef1071 	uxtb	r1, r1
    3630:	ea000001 	b	363c <strchr+0x10>
    3634:	e3520000 	cmp	r2, #0
    3638:	0a000005 	beq	3654 <strchr+0x28>
    363c:	e5d02000 	ldrb	r2, [r0]
    3640:	e1a03000 	mov	r3, r0
    3644:	e2800001 	add	r0, r0, #1
    3648:	e1520001 	cmp	r2, r1
    364c:	1afffff8 	bne	3634 <strchr+0x8>
    3650:	ea000000 	b	3658 <strchr+0x2c>
    3654:	e1a03002 	mov	r3, r2
    3658:	e1a00003 	mov	r0, r3
    365c:	e12fff1e 	bx	lr

00003660 <memset>:
    3660:	e3a03000 	mov	r3, #0
    3664:	ea000001 	b	3670 <memset+0x10>
    3668:	e7c01003 	strb	r1, [r0, r3]
    366c:	e2833001 	add	r3, r3, #1
    3670:	e1530002 	cmp	r3, r2
    3674:	1afffffb 	bne	3668 <memset+0x8>
    3678:	e12fff1e 	bx	lr

0000367c <__memzero>:
    367c:	e1a02001 	mov	r2, r1
    3680:	e3a01000 	mov	r1, #0
    3684:	eafffff5 	b	3660 <memset>

00003688 <_fdt_blocks_misordered>:
    3688:	e5903010 	ldr	r3, [r0, #16]
    368c:	e6bf3f33 	rev	r3, r3
    3690:	e3530027 	cmp	r3, #39	; 0x27
    3694:	9a000012 	bls	36e4 <_fdt_blocks_misordered+0x5c>
    3698:	e0833001 	add	r3, r3, r1
    369c:	e590c008 	ldr	ip, [r0, #8]
    36a0:	e6bfcf3c 	rev	ip, ip
    36a4:	e153000c 	cmp	r3, ip
    36a8:	8a00000d 	bhi	36e4 <_fdt_blocks_misordered+0x5c>
    36ac:	e08cc002 	add	ip, ip, r2
    36b0:	e590300c 	ldr	r3, [r0, #12]
    36b4:	e6bf3f33 	rev	r3, r3
    36b8:	e15c0003 	cmp	ip, r3
    36bc:	8a000008 	bhi	36e4 <_fdt_blocks_misordered+0x5c>
    36c0:	e5902020 	ldr	r2, [r0, #32]
    36c4:	e6bf2f32 	rev	r2, r2
    36c8:	e0823003 	add	r3, r2, r3
    36cc:	e5902004 	ldr	r2, [r0, #4]
    36d0:	e6bf2f32 	rev	r2, r2
    36d4:	e1530002 	cmp	r3, r2
    36d8:	93a00000 	movls	r0, #0
    36dc:	83a00001 	movhi	r0, #1
    36e0:	e12fff1e 	bx	lr
    36e4:	e3a00001 	mov	r0, #1
    36e8:	e12fff1e 	bx	lr

000036ec <_fdt_packblocks>:
    36ec:	e92d41f0 	push	{r4, r5, r6, r7, r8, lr}
    36f0:	e1a04001 	mov	r4, r1
    36f4:	e1a05000 	mov	r5, r0
    36f8:	e5901010 	ldr	r1, [r0, #16]
    36fc:	e2840028 	add	r0, r4, #40	; 0x28
    3700:	e1a06003 	mov	r6, r3
    3704:	e6bf1f31 	rev	r1, r1
    3708:	e0851001 	add	r1, r5, r1
    370c:	e2827028 	add	r7, r2, #40	; 0x28
    3710:	ebffff89 	bl	353c <memmove>
    3714:	e3a0330a 	mov	r3, #671088640	; 0x28000000
    3718:	e0878006 	add	r8, r7, r6
    371c:	e5843010 	str	r3, [r4, #16]
    3720:	e1a02006 	mov	r2, r6
    3724:	e0840007 	add	r0, r4, r7
    3728:	e5951008 	ldr	r1, [r5, #8]
    372c:	e6bf1f31 	rev	r1, r1
    3730:	e0851001 	add	r1, r5, r1
    3734:	ebffff80 	bl	353c <memmove>
    3738:	e6bf7f37 	rev	r7, r7
    373c:	e0840008 	add	r0, r4, r8
    3740:	e5847008 	str	r7, [r4, #8]
    3744:	e6bf6f36 	rev	r6, r6
    3748:	e5846024 	str	r6, [r4, #36]	; 0x24
    374c:	e595100c 	ldr	r1, [r5, #12]
    3750:	e5952020 	ldr	r2, [r5, #32]
    3754:	e6bf1f31 	rev	r1, r1
    3758:	e6bf2f32 	rev	r2, r2
    375c:	e0851001 	add	r1, r5, r1
    3760:	ebffff75 	bl	353c <memmove>
    3764:	e6bf8f38 	rev	r8, r8
    3768:	e584800c 	str	r8, [r4, #12]
    376c:	e5953020 	ldr	r3, [r5, #32]
    3770:	e6bf3f33 	rev	r3, r3
    3774:	e6bf3f33 	rev	r3, r3
    3778:	e5843020 	str	r3, [r4, #32]
    377c:	e8bd81f0 	pop	{r4, r5, r6, r7, r8, pc}

00003780 <_fdt_splice>:
    3780:	e92d4070 	push	{r4, r5, r6, lr}
    3784:	e0914002 	adds	r4, r1, r2
    3788:	e590c00c 	ldr	ip, [r0, #12]
    378c:	e6bfcf3c 	rev	ip, ip
    3790:	e5905020 	ldr	r5, [r0, #32]
    3794:	e6bf5f35 	rev	r5, r5
    3798:	e085c00c 	add	ip, r5, ip
    379c:	e080c00c 	add	ip, r0, ip
    37a0:	2a000011 	bcs	37ec <_fdt_splice+0x6c>
    37a4:	e15c0004 	cmp	ip, r4
    37a8:	3a00000f 	bcc	37ec <_fdt_splice+0x6c>
    37ac:	e0625003 	rsb	r5, r2, r3
    37b0:	e5906004 	ldr	r6, [r0, #4]
    37b4:	e08c5005 	add	r5, ip, r5
    37b8:	e6bf6f36 	rev	r6, r6
    37bc:	e0800006 	add	r0, r0, r6
    37c0:	e1550000 	cmp	r5, r0
    37c4:	8a000006 	bhi	37e4 <_fdt_splice+0x64>
    37c8:	e061c00c 	rsb	ip, r1, ip
    37cc:	e0810003 	add	r0, r1, r3
    37d0:	e062200c 	rsb	r2, r2, ip
    37d4:	e1a01004 	mov	r1, r4
    37d8:	ebffff57 	bl	353c <memmove>
    37dc:	e3a00000 	mov	r0, #0
    37e0:	e8bd8070 	pop	{r4, r5, r6, pc}
    37e4:	e3e00002 	mvn	r0, #2
    37e8:	e8bd8070 	pop	{r4, r5, r6, pc}
    37ec:	e3e00003 	mvn	r0, #3
    37f0:	e8bd8070 	pop	{r4, r5, r6, pc}

000037f4 <_fdt_splice_struct>:
    37f4:	e92d4070 	push	{r4, r5, r6, lr}
    37f8:	e1a04000 	mov	r4, r0
    37fc:	e1a05002 	mov	r5, r2
    3800:	e1a06003 	mov	r6, r3
    3804:	ebffffdd 	bl	3780 <_fdt_splice>
    3808:	e3500000 	cmp	r0, #0
    380c:	18bd8070 	popne	{r4, r5, r6, pc}
    3810:	e0653006 	rsb	r3, r5, r6
    3814:	e5942024 	ldr	r2, [r4, #36]	; 0x24
    3818:	e594100c 	ldr	r1, [r4, #12]
    381c:	e6bf2f32 	rev	r2, r2
    3820:	e6bf1f31 	rev	r1, r1
    3824:	e0822003 	add	r2, r2, r3
    3828:	e0813003 	add	r3, r1, r3
    382c:	e6bf2f32 	rev	r2, r2
    3830:	e6bf3f33 	rev	r3, r3
    3834:	e5842024 	str	r2, [r4, #36]	; 0x24
    3838:	e584300c 	str	r3, [r4, #12]
    383c:	e8bd8070 	pop	{r4, r5, r6, pc}

00003840 <_fdt_splice_mem_rsv>:
    3840:	e92d4070 	push	{r4, r5, r6, lr}
    3844:	e1a05002 	mov	r5, r2
    3848:	e1a06003 	mov	r6, r3
    384c:	e1a02202 	lsl	r2, r2, #4
    3850:	e1a03203 	lsl	r3, r3, #4
    3854:	e1a04000 	mov	r4, r0
    3858:	ebffffc8 	bl	3780 <_fdt_splice>
    385c:	e3500000 	cmp	r0, #0
    3860:	18bd8070 	popne	{r4, r5, r6, pc}
    3864:	e0655006 	rsb	r5, r5, r6
    3868:	e5943008 	ldr	r3, [r4, #8]
    386c:	e1a05205 	lsl	r5, r5, #4
    3870:	e594600c 	ldr	r6, [r4, #12]
    3874:	e6bf3f33 	rev	r3, r3
    3878:	e6bf6f36 	rev	r6, r6
    387c:	e0833005 	add	r3, r3, r5
    3880:	e0865005 	add	r5, r6, r5
    3884:	e6bf3f33 	rev	r3, r3
    3888:	e6bf5f35 	rev	r5, r5
    388c:	e5843008 	str	r3, [r4, #8]
    3890:	e584500c 	str	r5, [r4, #12]
    3894:	e8bd8070 	pop	{r4, r5, r6, pc}

00003898 <_fdt_add_property>:
    3898:	e92d4ff0 	push	{r4, r5, r6, r7, r8, r9, sl, fp, lr}
    389c:	e24dd00c 	sub	sp, sp, #12
    38a0:	e1a07002 	mov	r7, r2
    38a4:	e1a0a003 	mov	sl, r3
    38a8:	e1a04000 	mov	r4, r0
    38ac:	e59d6030 	ldr	r6, [sp, #48]	; 0x30
    38b0:	eb0005de 	bl	5030 <_fdt_check_node_offset>
    38b4:	e2505000 	subs	r5, r0, #0
    38b8:	ba000026 	blt	3958 <_fdt_add_property+0xc0>
    38bc:	e594800c 	ldr	r8, [r4, #12]
    38c0:	e1a00007 	mov	r0, r7
    38c4:	e6bf8f38 	rev	r8, r8
    38c8:	e0848008 	add	r8, r4, r8
    38cc:	ebffff29 	bl	3578 <strlen>
    38d0:	e5941020 	ldr	r1, [r4, #32]
    38d4:	e1a02007 	mov	r2, r7
    38d8:	e1a0b000 	mov	fp, r0
    38dc:	e1a00008 	mov	r0, r8
    38e0:	e6bf1f31 	rev	r1, r1
    38e4:	eb000625 	bl	5180 <_fdt_find_string>
    38e8:	e2502000 	subs	r2, r0, #0
    38ec:	0a00001c 	beq	3964 <_fdt_add_property+0xcc>
    38f0:	e0689002 	rsb	r9, r8, r2
    38f4:	e3590000 	cmp	r9, #0
    38f8:	b1a05009 	movlt	r5, r9
    38fc:	ba000015 	blt	3958 <_fdt_add_property+0xc0>
    3900:	e5941008 	ldr	r1, [r4, #8]
    3904:	e28a3003 	add	r3, sl, #3
    3908:	e6bf1f31 	rev	r1, r1
    390c:	e0815005 	add	r5, r1, r5
    3910:	e3c33003 	bic	r3, r3, #3
    3914:	e0841005 	add	r1, r4, r5
    3918:	e1a00004 	mov	r0, r4
    391c:	e5861000 	str	r1, [r6]
    3920:	e283300c 	add	r3, r3, #12
    3924:	e3a02000 	mov	r2, #0
    3928:	ebffffb1 	bl	37f4 <_fdt_splice_struct>
    392c:	e2505000 	subs	r5, r0, #0
    3930:	1a000008 	bne	3958 <_fdt_add_property+0xc0>
    3934:	e5963000 	ldr	r3, [r6]
    3938:	e3a02403 	mov	r2, #50331648	; 0x3000000
    393c:	e6bf9f39 	rev	r9, r9
    3940:	e6bfaf3a 	rev	sl, sl
    3944:	e5832000 	str	r2, [r3]
    3948:	e5963000 	ldr	r3, [r6]
    394c:	e5839008 	str	r9, [r3, #8]
    3950:	e5963000 	ldr	r3, [r6]
    3954:	e583a004 	str	sl, [r3, #4]
    3958:	e1a00005 	mov	r0, r5
    395c:	e28dd00c 	add	sp, sp, #12
    3960:	e8bd8ff0 	pop	{r4, r5, r6, r7, r8, r9, sl, fp, pc}
    3964:	e594c020 	ldr	ip, [r4, #32]
    3968:	e28bb001 	add	fp, fp, #1
    396c:	e6bfcf3c 	rev	ip, ip
    3970:	e594100c 	ldr	r1, [r4, #12]
    3974:	e1a0300b 	mov	r3, fp
    3978:	e6bf1f31 	rev	r1, r1
    397c:	e08c1001 	add	r1, ip, r1
    3980:	e1a00004 	mov	r0, r4
    3984:	e0841001 	add	r1, r4, r1
    3988:	e58dc004 	str	ip, [sp, #4]
    398c:	ebffff7b 	bl	3780 <_fdt_splice>
    3990:	e2509000 	subs	r9, r0, #0
    3994:	e59dc004 	ldr	ip, [sp, #4]
    3998:	1affffd5 	bne	38f4 <_fdt_add_property+0x5c>
    399c:	e5943020 	ldr	r3, [r4, #32]
    39a0:	e088000c 	add	r0, r8, ip
    39a4:	e1a0200b 	mov	r2, fp
    39a8:	e1a01007 	mov	r1, r7
    39ac:	e6bf3f33 	rev	r3, r3
    39b0:	e083b00b 	add	fp, r3, fp
    39b4:	e0689000 	rsb	r9, r8, r0
    39b8:	e6bfbf3b 	rev	fp, fp
    39bc:	e584b020 	str	fp, [r4, #32]
    39c0:	ebfffea6 	bl	3460 <memcpy>
    39c4:	eaffffca 	b	38f4 <_fdt_add_property+0x5c>

000039c8 <_fdt_rw_check_header>:
    39c8:	e92d4070 	push	{r4, r5, r6, lr}
    39cc:	e1a04000 	mov	r4, r0
    39d0:	eb000525 	bl	4e6c <fdt_check_header>
    39d4:	e2505000 	subs	r5, r0, #0
    39d8:	1a00000d 	bne	3a14 <_fdt_rw_check_header+0x4c>
    39dc:	e5946014 	ldr	r6, [r4, #20]
    39e0:	e6bf6f36 	rev	r6, r6
    39e4:	e3560010 	cmp	r6, #16
    39e8:	9a00000b 	bls	3a1c <_fdt_rw_check_header+0x54>
    39ec:	e5942024 	ldr	r2, [r4, #36]	; 0x24
    39f0:	e1a00004 	mov	r0, r4
    39f4:	e6bf2f32 	rev	r2, r2
    39f8:	e3a01010 	mov	r1, #16
    39fc:	ebffff21 	bl	3688 <_fdt_blocks_misordered>
    3a00:	e3500000 	cmp	r0, #0
    3a04:	1a000006 	bne	3a24 <_fdt_rw_check_header+0x5c>
    3a08:	e3560011 	cmp	r6, #17
    3a0c:	83a03411 	movhi	r3, #285212672	; 0x11000000
    3a10:	85843014 	strhi	r3, [r4, #20]
    3a14:	e1a00005 	mov	r0, r5
    3a18:	e8bd8070 	pop	{r4, r5, r6, pc}
    3a1c:	e3e05009 	mvn	r5, #9
    3a20:	eafffffb 	b	3a14 <_fdt_rw_check_header+0x4c>
    3a24:	e3e0500b 	mvn	r5, #11
    3a28:	eafffff9 	b	3a14 <_fdt_rw_check_header+0x4c>

00003a2c <fdt_add_mem_rsv>:
    3a2c:	e92d4ff0 	push	{r4, r5, r6, r7, r8, r9, sl, fp, lr}
    3a30:	e24dd00c 	sub	sp, sp, #12
    3a34:	e1a0a002 	mov	sl, r2
    3a38:	e1a07003 	mov	r7, r3
    3a3c:	e1a04000 	mov	r4, r0
    3a40:	e59d8030 	ldr	r8, [sp, #48]	; 0x30
    3a44:	e59d6034 	ldr	r6, [sp, #52]	; 0x34
    3a48:	ebffffde 	bl	39c8 <_fdt_rw_check_header>
    3a4c:	e2501000 	subs	r1, r0, #0
    3a50:	0a000002 	beq	3a60 <fdt_add_mem_rsv+0x34>
    3a54:	e1a00001 	mov	r0, r1
    3a58:	e28dd00c 	add	sp, sp, #12
    3a5c:	e8bd8ff0 	pop	{r4, r5, r6, r7, r8, r9, sl, fp, pc}
    3a60:	e1a00004 	mov	r0, r4
    3a64:	e58d1004 	str	r1, [sp, #4]
    3a68:	eb000206 	bl	4288 <fdt_num_mem_rsv>
    3a6c:	e59d1004 	ldr	r1, [sp, #4]
    3a70:	e1a0b200 	lsl	fp, r0, #4
    3a74:	e594c010 	ldr	ip, [r4, #16]
    3a78:	e1a00004 	mov	r0, r4
    3a7c:	e6bfcf3c 	rev	ip, ip
    3a80:	e084c00c 	add	ip, r4, ip
    3a84:	e1a02001 	mov	r2, r1
    3a88:	e08c900b 	add	r9, ip, fp
    3a8c:	e3a03001 	mov	r3, #1
    3a90:	e1a01009 	mov	r1, r9
    3a94:	e58dc004 	str	ip, [sp, #4]
    3a98:	ebffff68 	bl	3840 <_fdt_splice_mem_rsv>
    3a9c:	e2501000 	subs	r1, r0, #0
    3aa0:	e59dc004 	ldr	ip, [sp, #4]
    3aa4:	1affffea 	bne	3a54 <fdt_add_mem_rsv+0x28>
    3aa8:	e6bfaf3a 	rev	sl, sl
    3aac:	e6bf8f38 	rev	r8, r8
    3ab0:	e6bf7f37 	rev	r7, r7
    3ab4:	e6bf6f36 	rev	r6, r6
    3ab8:	e1814007 	orr	r4, r1, r7
    3abc:	e1a0500a 	mov	r5, sl
    3ac0:	e1812006 	orr	r2, r1, r6
    3ac4:	e1a03008 	mov	r3, r8
    3ac8:	e18c40fb 	strd	r4, [ip, fp]
    3acc:	e1c920f8 	strd	r2, [r9, #8]
    3ad0:	eaffffdf 	b	3a54 <fdt_add_mem_rsv+0x28>

00003ad4 <fdt_del_mem_rsv>:
    3ad4:	e92d41f0 	push	{r4, r5, r6, r7, r8, lr}
    3ad8:	e1a04000 	mov	r4, r0
    3adc:	e5903010 	ldr	r3, [r0, #16]
    3ae0:	e1a06001 	mov	r6, r1
    3ae4:	e6bf7f33 	rev	r7, r3
    3ae8:	ebffffb6 	bl	39c8 <_fdt_rw_check_header>
    3aec:	e2505000 	subs	r5, r0, #0
    3af0:	0a000001 	beq	3afc <fdt_del_mem_rsv+0x28>
    3af4:	e1a00005 	mov	r0, r5
    3af8:	e8bd81f0 	pop	{r4, r5, r6, r7, r8, pc}
    3afc:	e1a00004 	mov	r0, r4
    3b00:	eb0001e0 	bl	4288 <fdt_num_mem_rsv>
    3b04:	e1560000 	cmp	r6, r0
    3b08:	aa000006 	bge	3b28 <fdt_del_mem_rsv+0x54>
    3b0c:	e0841007 	add	r1, r4, r7
    3b10:	e1a00004 	mov	r0, r4
    3b14:	e0811206 	add	r1, r1, r6, lsl #4
    3b18:	e1a03005 	mov	r3, r5
    3b1c:	e3a02001 	mov	r2, #1
    3b20:	e8bd41f0 	pop	{r4, r5, r6, r7, r8, lr}
    3b24:	eaffff45 	b	3840 <_fdt_splice_mem_rsv>
    3b28:	e3e05000 	mvn	r5, #0
    3b2c:	eafffff0 	b	3af4 <fdt_del_mem_rsv+0x20>

00003b30 <fdt_set_name>:
    3b30:	e92d41f0 	push	{r4, r5, r6, r7, r8, lr}
    3b34:	e24dd008 	sub	sp, sp, #8
    3b38:	e1a07001 	mov	r7, r1
    3b3c:	e1a06002 	mov	r6, r2
    3b40:	e1a05000 	mov	r5, r0
    3b44:	ebffff9f 	bl	39c8 <_fdt_rw_check_header>
    3b48:	e2504000 	subs	r4, r0, #0
    3b4c:	0a000002 	beq	3b5c <fdt_set_name+0x2c>
    3b50:	e1a00004 	mov	r0, r4
    3b54:	e28dd008 	add	sp, sp, #8
    3b58:	e8bd81f0 	pop	{r4, r5, r6, r7, r8, pc}
    3b5c:	e1a01007 	mov	r1, r7
    3b60:	e1a00005 	mov	r0, r5
    3b64:	e28d2004 	add	r2, sp, #4
    3b68:	eb00021e 	bl	43e8 <fdt_get_name>
    3b6c:	e2507000 	subs	r7, r0, #0
    3b70:	059d4004 	ldreq	r4, [sp, #4]
    3b74:	0afffff5 	beq	3b50 <fdt_set_name+0x20>
    3b78:	e1a00006 	mov	r0, r6
    3b7c:	ebfffe7d 	bl	3578 <strlen>
    3b80:	e59d2004 	ldr	r2, [sp, #4]
    3b84:	e1a08000 	mov	r8, r0
    3b88:	e2883004 	add	r3, r8, #4
    3b8c:	e1a00005 	mov	r0, r5
    3b90:	e3c33003 	bic	r3, r3, #3
    3b94:	e1a01007 	mov	r1, r7
    3b98:	e2822004 	add	r2, r2, #4
    3b9c:	e3c22003 	bic	r2, r2, #3
    3ba0:	ebffff13 	bl	37f4 <_fdt_splice_struct>
    3ba4:	e2504000 	subs	r4, r0, #0
    3ba8:	1affffe8 	bne	3b50 <fdt_set_name+0x20>
    3bac:	e1a00007 	mov	r0, r7
    3bb0:	e1a01006 	mov	r1, r6
    3bb4:	e2882001 	add	r2, r8, #1
    3bb8:	ebfffe28 	bl	3460 <memcpy>
    3bbc:	eaffffe3 	b	3b50 <fdt_set_name+0x20>

00003bc0 <fdt_setprop>:
    3bc0:	e92d41f0 	push	{r4, r5, r6, r7, r8, lr}
    3bc4:	e24dd010 	sub	sp, sp, #16
    3bc8:	e1a07001 	mov	r7, r1
    3bcc:	e1a06002 	mov	r6, r2
    3bd0:	e1a08003 	mov	r8, r3
    3bd4:	e1a05000 	mov	r5, r0
    3bd8:	ebffff7a 	bl	39c8 <_fdt_rw_check_header>
    3bdc:	e2504000 	subs	r4, r0, #0
    3be0:	0a000002 	beq	3bf0 <fdt_setprop+0x30>
    3be4:	e1a00004 	mov	r0, r4
    3be8:	e28dd010 	add	sp, sp, #16
    3bec:	e8bd81f0 	pop	{r4, r5, r6, r7, r8, pc}
    3bf0:	e1a00005 	mov	r0, r5
    3bf4:	e1a01007 	mov	r1, r7
    3bf8:	e1a02006 	mov	r2, r6
    3bfc:	e28d300c 	add	r3, sp, #12
    3c00:	eb000265 	bl	459c <fdt_get_property>
    3c04:	e3500000 	cmp	r0, #0
    3c08:	e58d0008 	str	r0, [sp, #8]
    3c0c:	059d000c 	ldreq	r0, [sp, #12]
    3c10:	0a000013 	beq	3c64 <fdt_setprop+0xa4>
    3c14:	e59d1028 	ldr	r1, [sp, #40]	; 0x28
    3c18:	e59d200c 	ldr	r2, [sp, #12]
    3c1c:	e2813003 	add	r3, r1, #3
    3c20:	e280100c 	add	r1, r0, #12
    3c24:	e2822003 	add	r2, r2, #3
    3c28:	e3c33003 	bic	r3, r3, #3
    3c2c:	e1a00005 	mov	r0, r5
    3c30:	e3c22003 	bic	r2, r2, #3
    3c34:	ebfffeee 	bl	37f4 <_fdt_splice_struct>
    3c38:	e3500000 	cmp	r0, #0
    3c3c:	1a000008 	bne	3c64 <fdt_setprop+0xa4>
    3c40:	e59d0008 	ldr	r0, [sp, #8]
    3c44:	e59d2028 	ldr	r2, [sp, #40]	; 0x28
    3c48:	e6bf3f32 	rev	r3, r2
    3c4c:	e5803004 	str	r3, [r0, #4]
    3c50:	e1a01008 	mov	r1, r8
    3c54:	e59d2028 	ldr	r2, [sp, #40]	; 0x28
    3c58:	e280000c 	add	r0, r0, #12
    3c5c:	ebfffdff 	bl	3460 <memcpy>
    3c60:	eaffffdf 	b	3be4 <fdt_setprop+0x24>
    3c64:	e3700001 	cmn	r0, #1
    3c68:	0a000004 	beq	3c80 <fdt_setprop+0xc0>
    3c6c:	e3500000 	cmp	r0, #0
    3c70:	11a04000 	movne	r4, r0
    3c74:	1affffda 	bne	3be4 <fdt_setprop+0x24>
    3c78:	e59d0008 	ldr	r0, [sp, #8]
    3c7c:	eafffff3 	b	3c50 <fdt_setprop+0x90>
    3c80:	e28d3008 	add	r3, sp, #8
    3c84:	e1a00005 	mov	r0, r5
    3c88:	e58d3000 	str	r3, [sp]
    3c8c:	e1a01007 	mov	r1, r7
    3c90:	e1a02006 	mov	r2, r6
    3c94:	e59d3028 	ldr	r3, [sp, #40]	; 0x28
    3c98:	ebfffefe 	bl	3898 <_fdt_add_property>
    3c9c:	eafffff2 	b	3c6c <fdt_setprop+0xac>

00003ca0 <fdt_appendprop>:
    3ca0:	e92d41f0 	push	{r4, r5, r6, r7, r8, lr}
    3ca4:	e24dd010 	sub	sp, sp, #16
    3ca8:	e1a07001 	mov	r7, r1
    3cac:	e1a06002 	mov	r6, r2
    3cb0:	e1a08003 	mov	r8, r3
    3cb4:	e1a05000 	mov	r5, r0
    3cb8:	ebffff42 	bl	39c8 <_fdt_rw_check_header>
    3cbc:	e2504000 	subs	r4, r0, #0
    3cc0:	0a000002 	beq	3cd0 <fdt_appendprop+0x30>
    3cc4:	e1a00004 	mov	r0, r4
    3cc8:	e28dd010 	add	sp, sp, #16
    3ccc:	e8bd81f0 	pop	{r4, r5, r6, r7, r8, pc}
    3cd0:	e1a01007 	mov	r1, r7
    3cd4:	e1a00005 	mov	r0, r5
    3cd8:	e1a02006 	mov	r2, r6
    3cdc:	e28d300c 	add	r3, sp, #12
    3ce0:	eb00022d 	bl	459c <fdt_get_property>
    3ce4:	e3500000 	cmp	r0, #0
    3ce8:	e1a01000 	mov	r1, r0
    3cec:	e58d0008 	str	r0, [sp, #8]
    3cf0:	0a000015 	beq	3d4c <fdt_appendprop+0xac>
    3cf4:	e59d200c 	ldr	r2, [sp, #12]
    3cf8:	e1a00005 	mov	r0, r5
    3cfc:	e59d3028 	ldr	r3, [sp, #40]	; 0x28
    3d00:	e281100c 	add	r1, r1, #12
    3d04:	e0835002 	add	r5, r3, r2
    3d08:	e2822003 	add	r2, r2, #3
    3d0c:	e2853003 	add	r3, r5, #3
    3d10:	e3c22003 	bic	r2, r2, #3
    3d14:	e3c33003 	bic	r3, r3, #3
    3d18:	ebfffeb5 	bl	37f4 <_fdt_splice_struct>
    3d1c:	e2504000 	subs	r4, r0, #0
    3d20:	1affffe7 	bne	3cc4 <fdt_appendprop+0x24>
    3d24:	e59d3008 	ldr	r3, [sp, #8]
    3d28:	e1a01008 	mov	r1, r8
    3d2c:	e59d000c 	ldr	r0, [sp, #12]
    3d30:	e6bf5f35 	rev	r5, r5
    3d34:	e59d2028 	ldr	r2, [sp, #40]	; 0x28
    3d38:	e0830000 	add	r0, r3, r0
    3d3c:	e5835004 	str	r5, [r3, #4]
    3d40:	e280000c 	add	r0, r0, #12
    3d44:	ebfffdc5 	bl	3460 <memcpy>
    3d48:	eaffffdd 	b	3cc4 <fdt_appendprop+0x24>
    3d4c:	e28d3008 	add	r3, sp, #8
    3d50:	e1a00005 	mov	r0, r5
    3d54:	e58d3000 	str	r3, [sp]
    3d58:	e1a01007 	mov	r1, r7
    3d5c:	e1a02006 	mov	r2, r6
    3d60:	e59d3028 	ldr	r3, [sp, #40]	; 0x28
    3d64:	ebfffecb 	bl	3898 <_fdt_add_property>
    3d68:	e2504000 	subs	r4, r0, #0
    3d6c:	1affffd4 	bne	3cc4 <fdt_appendprop+0x24>
    3d70:	e59d0008 	ldr	r0, [sp, #8]
    3d74:	e1a01008 	mov	r1, r8
    3d78:	e59d2028 	ldr	r2, [sp, #40]	; 0x28
    3d7c:	e280000c 	add	r0, r0, #12
    3d80:	ebfffdb6 	bl	3460 <memcpy>
    3d84:	eaffffce 	b	3cc4 <fdt_appendprop+0x24>

00003d88 <fdt_delprop>:
    3d88:	e92d40f0 	push	{r4, r5, r6, r7, lr}
    3d8c:	e24dd00c 	sub	sp, sp, #12
    3d90:	e1a07001 	mov	r7, r1
    3d94:	e1a06002 	mov	r6, r2
    3d98:	e1a05000 	mov	r5, r0
    3d9c:	ebffff09 	bl	39c8 <_fdt_rw_check_header>
    3da0:	e2504000 	subs	r4, r0, #0
    3da4:	0a000002 	beq	3db4 <fdt_delprop+0x2c>
    3da8:	e1a00004 	mov	r0, r4
    3dac:	e28dd00c 	add	sp, sp, #12
    3db0:	e8bd80f0 	pop	{r4, r5, r6, r7, pc}
    3db4:	e1a01007 	mov	r1, r7
    3db8:	e1a02006 	mov	r2, r6
    3dbc:	e1a00005 	mov	r0, r5
    3dc0:	e28d3004 	add	r3, sp, #4
    3dc4:	eb0001f4 	bl	459c <fdt_get_property>
    3dc8:	e2501000 	subs	r1, r0, #0
    3dcc:	059d4004 	ldreq	r4, [sp, #4]
    3dd0:	0afffff4 	beq	3da8 <fdt_delprop+0x20>
    3dd4:	e59d2004 	ldr	r2, [sp, #4]
    3dd8:	e1a03004 	mov	r3, r4
    3ddc:	e1a00005 	mov	r0, r5
    3de0:	e2822003 	add	r2, r2, #3
    3de4:	e3c22003 	bic	r2, r2, #3
    3de8:	e282200c 	add	r2, r2, #12
    3dec:	ebfffe80 	bl	37f4 <_fdt_splice_struct>
    3df0:	e1a04000 	mov	r4, r0
    3df4:	eaffffeb 	b	3da8 <fdt_delprop+0x20>

00003df8 <fdt_add_subnode_namelen>:
    3df8:	e92d47f0 	push	{r4, r5, r6, r7, r8, r9, sl, lr}
    3dfc:	e24dd008 	sub	sp, sp, #8
    3e00:	e1a06001 	mov	r6, r1
    3e04:	e1a07002 	mov	r7, r2
    3e08:	e1a05003 	mov	r5, r3
    3e0c:	e1a04000 	mov	r4, r0
    3e10:	ebfffeec 	bl	39c8 <_fdt_rw_check_header>
    3e14:	e3500000 	cmp	r0, #0
    3e18:	0a000001 	beq	3e24 <fdt_add_subnode_namelen+0x2c>
    3e1c:	e28dd008 	add	sp, sp, #8
    3e20:	e8bd87f0 	pop	{r4, r5, r6, r7, r8, r9, sl, pc}
    3e24:	e1a00004 	mov	r0, r4
    3e28:	e1a01006 	mov	r1, r6
    3e2c:	e1a02007 	mov	r2, r7
    3e30:	e1a03005 	mov	r3, r5
    3e34:	eb000128 	bl	42dc <fdt_subnode_offset_namelen>
    3e38:	e3500000 	cmp	r0, #0
    3e3c:	aa000028 	bge	3ee4 <fdt_add_subnode_namelen+0xec>
    3e40:	e3700001 	cmn	r0, #1
    3e44:	1afffff4 	bne	3e1c <fdt_add_subnode_namelen+0x24>
    3e48:	e1a01006 	mov	r1, r6
    3e4c:	e28d2004 	add	r2, sp, #4
    3e50:	e1a00004 	mov	r0, r4
    3e54:	eb000435 	bl	4f30 <fdt_next_tag>
    3e58:	e59d6004 	ldr	r6, [sp, #4]
    3e5c:	e1a00004 	mov	r0, r4
    3e60:	e28d2004 	add	r2, sp, #4
    3e64:	e1a01006 	mov	r1, r6
    3e68:	eb000430 	bl	4f30 <fdt_next_tag>
    3e6c:	e2400003 	sub	r0, r0, #3
    3e70:	e3500001 	cmp	r0, #1
    3e74:	9afffff7 	bls	3e58 <fdt_add_subnode_namelen+0x60>
    3e78:	e5949008 	ldr	r9, [r4, #8]
    3e7c:	e2858004 	add	r8, r5, #4
    3e80:	e6bf9f39 	rev	r9, r9
    3e84:	e0869009 	add	r9, r6, r9
    3e88:	e3c88003 	bic	r8, r8, #3
    3e8c:	e084a009 	add	sl, r4, r9
    3e90:	e2883008 	add	r3, r8, #8
    3e94:	e1a0100a 	mov	r1, sl
    3e98:	e1a00004 	mov	r0, r4
    3e9c:	e3a02000 	mov	r2, #0
    3ea0:	ebfffe53 	bl	37f4 <_fdt_splice_struct>
    3ea4:	e3500000 	cmp	r0, #0
    3ea8:	1affffdb 	bne	3e1c <fdt_add_subnode_namelen+0x24>
    3eac:	e3580000 	cmp	r8, #0
    3eb0:	e3a03401 	mov	r3, #16777216	; 0x1000000
    3eb4:	e7843009 	str	r3, [r4, r9]
    3eb8:	e28a4004 	add	r4, sl, #4
    3ebc:	1a00000a 	bne	3eec <fdt_add_subnode_namelen+0xf4>
    3ec0:	e1a00004 	mov	r0, r4
    3ec4:	e1a01007 	mov	r1, r7
    3ec8:	e1a02005 	mov	r2, r5
    3ecc:	e08a8008 	add	r8, sl, r8
    3ed0:	ebfffd62 	bl	3460 <memcpy>
    3ed4:	e3a03402 	mov	r3, #33554432	; 0x2000000
    3ed8:	e1a00006 	mov	r0, r6
    3edc:	e5883004 	str	r3, [r8, #4]
    3ee0:	eaffffcd 	b	3e1c <fdt_add_subnode_namelen+0x24>
    3ee4:	e3e00001 	mvn	r0, #1
    3ee8:	eaffffcb 	b	3e1c <fdt_add_subnode_namelen+0x24>
    3eec:	e1a00004 	mov	r0, r4
    3ef0:	e1a01008 	mov	r1, r8
    3ef4:	ebfffde0 	bl	367c <__memzero>
    3ef8:	eafffff0 	b	3ec0 <fdt_add_subnode_namelen+0xc8>

00003efc <fdt_add_subnode>:
    3efc:	e92d4070 	push	{r4, r5, r6, lr}
    3f00:	e1a04002 	mov	r4, r2
    3f04:	e1a05000 	mov	r5, r0
    3f08:	e1a06001 	mov	r6, r1
    3f0c:	e1a00002 	mov	r0, r2
    3f10:	ebfffd98 	bl	3578 <strlen>
    3f14:	e1a01006 	mov	r1, r6
    3f18:	e1a03000 	mov	r3, r0
    3f1c:	e1a02004 	mov	r2, r4
    3f20:	e1a00005 	mov	r0, r5
    3f24:	e8bd4070 	pop	{r4, r5, r6, lr}
    3f28:	eaffffb2 	b	3df8 <fdt_add_subnode_namelen>

00003f2c <fdt_del_node>:
    3f2c:	e92d4070 	push	{r4, r5, r6, lr}
    3f30:	e1a04001 	mov	r4, r1
    3f34:	e1a05000 	mov	r5, r0
    3f38:	ebfffea2 	bl	39c8 <_fdt_rw_check_header>
    3f3c:	e2502000 	subs	r2, r0, #0
    3f40:	0a000001 	beq	3f4c <fdt_del_node+0x20>
    3f44:	e1a00002 	mov	r0, r2
    3f48:	e8bd8070 	pop	{r4, r5, r6, pc}
    3f4c:	e1a00005 	mov	r0, r5
    3f50:	e1a01004 	mov	r1, r4
    3f54:	eb00039d 	bl	4dd0 <_fdt_node_end_offset>
    3f58:	e2502000 	subs	r2, r0, #0
    3f5c:	bafffff8 	blt	3f44 <fdt_del_node+0x18>
    3f60:	e5951008 	ldr	r1, [r5, #8]
    3f64:	e1a00005 	mov	r0, r5
    3f68:	e6bf1f31 	rev	r1, r1
    3f6c:	e0811004 	add	r1, r1, r4
    3f70:	e0642002 	rsb	r2, r4, r2
    3f74:	e0851001 	add	r1, r5, r1
    3f78:	e3a03000 	mov	r3, #0
    3f7c:	e8bd4070 	pop	{r4, r5, r6, lr}
    3f80:	eafffe1b 	b	37f4 <_fdt_splice_struct>

00003f84 <fdt_open_into>:
    3f84:	e92d4ff0 	push	{r4, r5, r6, r7, r8, r9, sl, fp, lr}
    3f88:	e24dd00c 	sub	sp, sp, #12
    3f8c:	e1a04000 	mov	r4, r0
    3f90:	e1a06001 	mov	r6, r1
    3f94:	e1a08002 	mov	r8, r2
    3f98:	e5901004 	ldr	r1, [r0, #4]
    3f9c:	e6bf9f31 	rev	r9, r1
    3fa0:	eb0003b1 	bl	4e6c <fdt_check_header>
    3fa4:	e2505000 	subs	r5, r0, #0
    3fa8:	0a000002 	beq	3fb8 <fdt_open_into+0x34>
    3fac:	e1a00005 	mov	r0, r5
    3fb0:	e28dd00c 	add	sp, sp, #12
    3fb4:	e8bd8ff0 	pop	{r4, r5, r6, r7, r8, r9, sl, fp, pc}
    3fb8:	e1a00004 	mov	r0, r4
    3fbc:	eb0000b1 	bl	4288 <fdt_num_mem_rsv>
    3fc0:	e5943014 	ldr	r3, [r4, #20]
    3fc4:	e2800001 	add	r0, r0, #1
    3fc8:	e6bf3f33 	rev	r3, r3
    3fcc:	e3530010 	cmp	r3, #16
    3fd0:	e1a0a200 	lsl	sl, r0, #4
    3fd4:	8a00003c 	bhi	40cc <fdt_open_into+0x148>
    3fd8:	e28d7008 	add	r7, sp, #8
    3fdc:	e1a01005 	mov	r1, r5
    3fe0:	e5275004 	str	r5, [r7, #-4]!
    3fe4:	ea000000 	b	3fec <fdt_open_into+0x68>
    3fe8:	e59d1004 	ldr	r1, [sp, #4]
    3fec:	e1a00004 	mov	r0, r4
    3ff0:	e1a02007 	mov	r2, r7
    3ff4:	eb0003cd 	bl	4f30 <fdt_next_tag>
    3ff8:	e3500009 	cmp	r0, #9
    3ffc:	1afffff9 	bne	3fe8 <fdt_open_into+0x64>
    4000:	e59d7004 	ldr	r7, [sp, #4]
    4004:	e3570000 	cmp	r7, #0
    4008:	b1a05007 	movlt	r5, r7
    400c:	baffffe6 	blt	3fac <fdt_open_into+0x28>
    4010:	e1a00004 	mov	r0, r4
    4014:	e1a0100a 	mov	r1, sl
    4018:	e1a02007 	mov	r2, r7
    401c:	ebfffd99 	bl	3688 <_fdt_blocks_misordered>
    4020:	e3500000 	cmp	r0, #0
    4024:	0a00002c 	beq	40dc <fdt_open_into+0x158>
    4028:	e28ab028 	add	fp, sl, #40	; 0x28
    402c:	e5943020 	ldr	r3, [r4, #32]
    4030:	e08bb007 	add	fp, fp, r7
    4034:	e6bf3f33 	rev	r3, r3
    4038:	e08bb003 	add	fp, fp, r3
    403c:	e158000b 	cmp	r8, fp
    4040:	ba00003b 	blt	4134 <fdt_open_into+0x1b0>
    4044:	e086300b 	add	r3, r6, fp
    4048:	e1540003 	cmp	r4, r3
    404c:	2a000030 	bcs	4114 <fdt_open_into+0x190>
    4050:	e0849009 	add	r9, r4, r9
    4054:	e1590006 	cmp	r9, r6
    4058:	91a09006 	movls	r9, r6
    405c:	9a000003 	bls	4070 <fdt_open_into+0xec>
    4060:	e089200b 	add	r2, r9, fp
    4064:	e0863008 	add	r3, r6, r8
    4068:	e1520003 	cmp	r2, r3
    406c:	8a000030 	bhi	4134 <fdt_open_into+0x1b0>
    4070:	e1a00004 	mov	r0, r4
    4074:	e1a01009 	mov	r1, r9
    4078:	e1a0200a 	mov	r2, sl
    407c:	e1a03007 	mov	r3, r7
    4080:	ebfffd99 	bl	36ec <_fdt_packblocks>
    4084:	e1a00006 	mov	r0, r6
    4088:	e1a01009 	mov	r1, r9
    408c:	e1a0200b 	mov	r2, fp
    4090:	ebfffd29 	bl	353c <memmove>
    4094:	e3a03edd 	mov	r3, #3536	; 0xdd0
    4098:	e3a02411 	mov	r2, #285212672	; 0x11000000
    409c:	e34e3dfe 	movt	r3, #60926	; 0xedfe
    40a0:	e5862014 	str	r2, [r6, #20]
    40a4:	e5863000 	str	r3, [r6]
    40a8:	e3a03201 	mov	r3, #268435456	; 0x10000000
    40ac:	e6bf8f38 	rev	r8, r8
    40b0:	e5863018 	str	r3, [r6, #24]
    40b4:	e5868004 	str	r8, [r6, #4]
    40b8:	e594301c 	ldr	r3, [r4, #28]
    40bc:	e6bf3f33 	rev	r3, r3
    40c0:	e6bf3f33 	rev	r3, r3
    40c4:	e586301c 	str	r3, [r6, #28]
    40c8:	eaffffb7 	b	3fac <fdt_open_into+0x28>
    40cc:	e5947024 	ldr	r7, [r4, #36]	; 0x24
    40d0:	e6bf7f37 	rev	r7, r7
    40d4:	e58d7004 	str	r7, [sp, #4]
    40d8:	eaffffcc 	b	4010 <fdt_open_into+0x8c>
    40dc:	e1a00004 	mov	r0, r4
    40e0:	e1a01006 	mov	r1, r6
    40e4:	e1a02008 	mov	r2, r8
    40e8:	eb00043d 	bl	51e4 <fdt_move>
    40ec:	e2505000 	subs	r5, r0, #0
    40f0:	1affffad 	bne	3fac <fdt_open_into+0x28>
    40f4:	e3a03411 	mov	r3, #285212672	; 0x11000000
    40f8:	e59d2004 	ldr	r2, [sp, #4]
    40fc:	e6bf8f38 	rev	r8, r8
    4100:	e6bf2f32 	rev	r2, r2
    4104:	e5868004 	str	r8, [r6, #4]
    4108:	e5862024 	str	r2, [r6, #36]	; 0x24
    410c:	e5863014 	str	r3, [r6, #20]
    4110:	eaffffa5 	b	3fac <fdt_open_into+0x28>
    4114:	e1a00004 	mov	r0, r4
    4118:	e1a01006 	mov	r1, r6
    411c:	e1a0200a 	mov	r2, sl
    4120:	e1a03007 	mov	r3, r7
    4124:	ebfffd70 	bl	36ec <_fdt_packblocks>
    4128:	e1a00006 	mov	r0, r6
    412c:	e1a01006 	mov	r1, r6
    4130:	eaffffd5 	b	408c <fdt_open_into+0x108>
    4134:	e3e05002 	mvn	r5, #2
    4138:	eaffff9b 	b	3fac <fdt_open_into+0x28>

0000413c <fdt_pack>:
    413c:	e92d4038 	push	{r3, r4, r5, lr}
    4140:	e1a04000 	mov	r4, r0
    4144:	ebfffe1f 	bl	39c8 <_fdt_rw_check_header>
    4148:	e2505000 	subs	r5, r0, #0
    414c:	1a00000f 	bne	4190 <fdt_pack+0x54>
    4150:	e1a00004 	mov	r0, r4
    4154:	eb00004b 	bl	4288 <fdt_num_mem_rsv>
    4158:	e2802001 	add	r2, r0, #1
    415c:	e5943024 	ldr	r3, [r4, #36]	; 0x24
    4160:	e1a02202 	lsl	r2, r2, #4
    4164:	e1a00004 	mov	r0, r4
    4168:	e6bf3f33 	rev	r3, r3
    416c:	e1a01004 	mov	r1, r4
    4170:	ebfffd5d 	bl	36ec <_fdt_packblocks>
    4174:	e594200c 	ldr	r2, [r4, #12]
    4178:	e5943020 	ldr	r3, [r4, #32]
    417c:	e6bf2f32 	rev	r2, r2
    4180:	e6bf3f33 	rev	r3, r3
    4184:	e0833002 	add	r3, r3, r2
    4188:	e6bf3f33 	rev	r3, r3
    418c:	e5843004 	str	r3, [r4, #4]
    4190:	e1a00005 	mov	r0, r5
    4194:	e8bd8038 	pop	{r3, r4, r5, pc}

00004198 <_nextprop>:
    4198:	e92d4030 	push	{r4, r5, lr}
    419c:	e1a05000 	mov	r5, r0
    41a0:	e24dd00c 	sub	sp, sp, #12
    41a4:	e1a04001 	mov	r4, r1
    41a8:	e1a00005 	mov	r0, r5
    41ac:	e1a01004 	mov	r1, r4
    41b0:	e28d2004 	add	r2, sp, #4
    41b4:	eb00035d 	bl	4f30 <fdt_next_tag>
    41b8:	e3500003 	cmp	r0, #3
    41bc:	0a000005 	beq	41d8 <_nextprop+0x40>
    41c0:	e3500009 	cmp	r0, #9
    41c4:	0a000006 	beq	41e4 <_nextprop+0x4c>
    41c8:	e3500004 	cmp	r0, #4
    41cc:	e59d4004 	ldr	r4, [sp, #4]
    41d0:	0afffff4 	beq	41a8 <_nextprop+0x10>
    41d4:	e3e04000 	mvn	r4, #0
    41d8:	e1a00004 	mov	r0, r4
    41dc:	e28dd00c 	add	sp, sp, #12
    41e0:	e8bd8030 	pop	{r4, r5, pc}
    41e4:	e59d4004 	ldr	r4, [sp, #4]
    41e8:	e3540000 	cmp	r4, #0
    41ec:	a3e0400a 	mvnge	r4, #10
    41f0:	eafffff8 	b	41d8 <_nextprop+0x40>

000041f4 <fdt_string>:
    41f4:	e590300c 	ldr	r3, [r0, #12]
    41f8:	e6bf3f33 	rev	r3, r3
    41fc:	e0831001 	add	r1, r3, r1
    4200:	e0800001 	add	r0, r0, r1
    4204:	e12fff1e 	bx	lr

00004208 <fdt_get_mem_rsv>:
    4208:	e92d47f0 	push	{r4, r5, r6, r7, r8, r9, sl, lr}
    420c:	e1a04001 	mov	r4, r1
    4210:	e1a09002 	mov	r9, r2
    4214:	e1a08003 	mov	r8, r3
    4218:	e1a0a000 	mov	sl, r0
    421c:	eb000312 	bl	4e6c <fdt_check_header>
    4220:	e3500000 	cmp	r0, #0
    4224:	18bd87f0 	popne	{r4, r5, r6, r7, r8, r9, sl, pc}
    4228:	e1a03204 	lsl	r3, r4, #4
    422c:	e59a2010 	ldr	r2, [sl, #16]
    4230:	e6bf2f32 	rev	r2, r2
    4234:	e08a2002 	add	r2, sl, r2
    4238:	e7921204 	ldr	r1, [r2, r4, lsl #4]
    423c:	e0822003 	add	r2, r2, r3
    4240:	e5922004 	ldr	r2, [r2, #4]
    4244:	e6bf1f31 	rev	r1, r1
    4248:	e6bf2f32 	rev	r2, r2
    424c:	e1a07001 	mov	r7, r1
    4250:	e1806002 	orr	r6, r0, r2
    4254:	e1c960f0 	strd	r6, [r9]
    4258:	e59a2010 	ldr	r2, [sl, #16]
    425c:	e6bf2f32 	rev	r2, r2
    4260:	e08aa002 	add	sl, sl, r2
    4264:	e08aa003 	add	sl, sl, r3
    4268:	e59a3008 	ldr	r3, [sl, #8]
    426c:	e6bf3f33 	rev	r3, r3
    4270:	e1a05003 	mov	r5, r3
    4274:	e59a300c 	ldr	r3, [sl, #12]
    4278:	e6bf3f33 	rev	r3, r3
    427c:	e1804003 	orr	r4, r0, r3
    4280:	e1c840f0 	strd	r4, [r8]
    4284:	e8bd87f0 	pop	{r4, r5, r6, r7, r8, r9, sl, pc}

00004288 <fdt_num_mem_rsv>:
    4288:	e92d0070 	push	{r4, r5, r6}
    428c:	e3a01000 	mov	r1, #0
    4290:	e5906010 	ldr	r6, [r0, #16]
    4294:	e6bf6f36 	rev	r6, r6
    4298:	ea000000 	b	42a0 <fdt_num_mem_rsv+0x18>
    429c:	e2811001 	add	r1, r1, #1
    42a0:	e080c201 	add	ip, r0, r1, lsl #4
    42a4:	e3a02000 	mov	r2, #0
    42a8:	e08cc006 	add	ip, ip, r6
    42ac:	e59c4008 	ldr	r4, [ip, #8]
    42b0:	e6bf4f34 	rev	r4, r4
    42b4:	e1a03004 	mov	r3, r4
    42b8:	e59cc00c 	ldr	ip, [ip, #12]
    42bc:	e1a05003 	mov	r5, r3
    42c0:	e6bfcf3c 	rev	ip, ip
    42c4:	e182400c 	orr	r4, r2, ip
    42c8:	e194c005 	orrs	ip, r4, r5
    42cc:	1afffff2 	bne	429c <fdt_num_mem_rsv+0x14>
    42d0:	e1a00001 	mov	r0, r1
    42d4:	e8bd0070 	pop	{r4, r5, r6}
    42d8:	e12fff1e 	bx	lr

000042dc <fdt_subnode_offset_namelen>:
    42dc:	e92d45f0 	push	{r4, r5, r6, r7, r8, sl, lr}
    42e0:	e24dd00c 	sub	sp, sp, #12
    42e4:	e1a08001 	mov	r8, r1
    42e8:	e1a07002 	mov	r7, r2
    42ec:	e1a06003 	mov	r6, r3
    42f0:	e1a05000 	mov	r5, r0
    42f4:	eb0002dc 	bl	4e6c <fdt_check_header>
    42f8:	e2504000 	subs	r4, r0, #0
    42fc:	1a00001d 	bne	4378 <fdt_subnode_offset_namelen+0x9c>
    4300:	e3580000 	cmp	r8, #0
    4304:	e58d4004 	str	r4, [sp, #4]
    4308:	e1a04008 	mov	r4, r8
    430c:	ba000019 	blt	4378 <fdt_subnode_offset_namelen+0x9c>
    4310:	e286a001 	add	sl, r6, #1
    4314:	e1a01004 	mov	r1, r4
    4318:	e1a00005 	mov	r0, r5
    431c:	e28d2004 	add	r2, sp, #4
    4320:	eb000362 	bl	50b0 <fdt_next_node>
    4324:	e59dc004 	ldr	ip, [sp, #4]
    4328:	e1a04000 	mov	r4, r0
    432c:	e3500000 	cmp	r0, #0
    4330:	a35c0000 	cmpge	ip, #0
    4334:	ba00001c 	blt	43ac <fdt_subnode_offset_namelen+0xd0>
    4338:	e35c0001 	cmp	ip, #1
    433c:	1afffff4 	bne	4314 <fdt_subnode_offset_namelen+0x38>
    4340:	e2841004 	add	r1, r4, #4
    4344:	e1a0200a 	mov	r2, sl
    4348:	e1a00005 	mov	r0, r5
    434c:	eb0002e4 	bl	4ee4 <fdt_offset_ptr>
    4350:	e2508000 	subs	r8, r0, #0
    4354:	e1a01007 	mov	r1, r7
    4358:	e1a02006 	mov	r2, r6
    435c:	0affffec 	beq	4314 <fdt_subnode_offset_namelen+0x38>
    4360:	ebfffc8c 	bl	3598 <memcmp>
    4364:	e3500000 	cmp	r0, #0
    4368:	1affffe9 	bne	4314 <fdt_subnode_offset_namelen+0x38>
    436c:	e7d83006 	ldrb	r3, [r8, r6]
    4370:	e3530000 	cmp	r3, #0
    4374:	1a000002 	bne	4384 <fdt_subnode_offset_namelen+0xa8>
    4378:	e1a00004 	mov	r0, r4
    437c:	e28dd00c 	add	sp, sp, #12
    4380:	e8bd85f0 	pop	{r4, r5, r6, r7, r8, sl, pc}
    4384:	e1a00007 	mov	r0, r7
    4388:	e3a01040 	mov	r1, #64	; 0x40
    438c:	e1a02006 	mov	r2, r6
    4390:	ebfffc99 	bl	35fc <memchr>
    4394:	e3500000 	cmp	r0, #0
    4398:	1affffdd 	bne	4314 <fdt_subnode_offset_namelen+0x38>
    439c:	e7d83006 	ldrb	r3, [r8, r6]
    43a0:	e3530040 	cmp	r3, #64	; 0x40
    43a4:	1affffda 	bne	4314 <fdt_subnode_offset_namelen+0x38>
    43a8:	eafffff2 	b	4378 <fdt_subnode_offset_namelen+0x9c>
    43ac:	e35c0000 	cmp	ip, #0
    43b0:	b3e04000 	mvnlt	r4, #0
    43b4:	eaffffef 	b	4378 <fdt_subnode_offset_namelen+0x9c>

000043b8 <fdt_subnode_offset>:
    43b8:	e92d4070 	push	{r4, r5, r6, lr}
    43bc:	e1a04002 	mov	r4, r2
    43c0:	e1a05000 	mov	r5, r0
    43c4:	e1a06001 	mov	r6, r1
    43c8:	e1a00002 	mov	r0, r2
    43cc:	ebfffc69 	bl	3578 <strlen>
    43d0:	e1a01006 	mov	r1, r6
    43d4:	e1a03000 	mov	r3, r0
    43d8:	e1a02004 	mov	r2, r4
    43dc:	e1a00005 	mov	r0, r5
    43e0:	e8bd4070 	pop	{r4, r5, r6, lr}
    43e4:	eaffffbc 	b	42dc <fdt_subnode_offset_namelen>

000043e8 <fdt_get_name>:
    43e8:	e92d40f8 	push	{r3, r4, r5, r6, r7, lr}
    43ec:	e1a05000 	mov	r5, r0
    43f0:	e5903008 	ldr	r3, [r0, #8]
    43f4:	e1a06001 	mov	r6, r1
    43f8:	e1a04002 	mov	r4, r2
    43fc:	e6bf7f33 	rev	r7, r3
    4400:	eb000299 	bl	4e6c <fdt_check_header>
    4404:	e3500000 	cmp	r0, #0
    4408:	0a000004 	beq	4420 <fdt_get_name+0x38>
    440c:	e3540000 	cmp	r4, #0
    4410:	15840000 	strne	r0, [r4]
    4414:	13a00000 	movne	r0, #0
    4418:	01a00004 	moveq	r0, r4
    441c:	e8bd80f8 	pop	{r3, r4, r5, r6, r7, pc}
    4420:	e1a00005 	mov	r0, r5
    4424:	e1a01006 	mov	r1, r6
    4428:	eb000300 	bl	5030 <_fdt_check_node_offset>
    442c:	e3500000 	cmp	r0, #0
    4430:	bafffff5 	blt	440c <fdt_get_name+0x24>
    4434:	e0876006 	add	r6, r7, r6
    4438:	e3540000 	cmp	r4, #0
    443c:	e0855006 	add	r5, r5, r6
    4440:	e2855004 	add	r5, r5, #4
    4444:	0a000002 	beq	4454 <fdt_get_name+0x6c>
    4448:	e1a00005 	mov	r0, r5
    444c:	ebfffc49 	bl	3578 <strlen>
    4450:	e5840000 	str	r0, [r4]
    4454:	e1a00005 	mov	r0, r5
    4458:	e8bd80f8 	pop	{r3, r4, r5, r6, r7, pc}

0000445c <fdt_first_property_offset>:
    445c:	e92d4010 	push	{r4, lr}
    4460:	e1a04000 	mov	r4, r0
    4464:	eb0002f1 	bl	5030 <_fdt_check_node_offset>
    4468:	e2501000 	subs	r1, r0, #0
    446c:	b8bd8010 	poplt	{r4, pc}
    4470:	e1a00004 	mov	r0, r4
    4474:	e8bd4010 	pop	{r4, lr}
    4478:	eaffff46 	b	4198 <_nextprop>

0000447c <fdt_next_property_offset>:
    447c:	e92d4010 	push	{r4, lr}
    4480:	e1a04000 	mov	r4, r0
    4484:	eb0002f9 	bl	5070 <_fdt_check_prop_offset>
    4488:	e2501000 	subs	r1, r0, #0
    448c:	b8bd8010 	poplt	{r4, pc}
    4490:	e1a00004 	mov	r0, r4
    4494:	e8bd4010 	pop	{r4, lr}
    4498:	eaffff3e 	b	4198 <_nextprop>

0000449c <fdt_get_property_by_offset>:
    449c:	e92d4070 	push	{r4, r5, r6, lr}
    44a0:	e1a04002 	mov	r4, r2
    44a4:	e1a05000 	mov	r5, r0
    44a8:	e1a06001 	mov	r6, r1
    44ac:	eb0002ef 	bl	5070 <_fdt_check_prop_offset>
    44b0:	e3500000 	cmp	r0, #0
    44b4:	ba000009 	blt	44e0 <fdt_get_property_by_offset+0x44>
    44b8:	e3540000 	cmp	r4, #0
    44bc:	e5950008 	ldr	r0, [r5, #8]
    44c0:	e6bf0f30 	rev	r0, r0
    44c4:	e0800006 	add	r0, r0, r6
    44c8:	e0850000 	add	r0, r5, r0
    44cc:	08bd8070 	popeq	{r4, r5, r6, pc}
    44d0:	e5903004 	ldr	r3, [r0, #4]
    44d4:	e6bf3f33 	rev	r3, r3
    44d8:	e5843000 	str	r3, [r4]
    44dc:	e8bd8070 	pop	{r4, r5, r6, pc}
    44e0:	e3540000 	cmp	r4, #0
    44e4:	15840000 	strne	r0, [r4]
    44e8:	e3a00000 	mov	r0, #0
    44ec:	e8bd8070 	pop	{r4, r5, r6, pc}

000044f0 <fdt_get_property_namelen>:
    44f0:	e92d47f0 	push	{r4, r5, r6, r7, r8, r9, sl, lr}
    44f4:	e1a0a002 	mov	sl, r2
    44f8:	e1a07003 	mov	r7, r3
    44fc:	e1a04000 	mov	r4, r0
    4500:	e59d8020 	ldr	r8, [sp, #32]
    4504:	ebffffd4 	bl	445c <fdt_first_property_offset>
    4508:	e2505000 	subs	r5, r0, #0
    450c:	aa000005 	bge	4528 <fdt_get_property_namelen+0x38>
    4510:	ea00001b 	b	4584 <fdt_get_property_namelen+0x94>
    4514:	e1a01005 	mov	r1, r5
    4518:	e1a00004 	mov	r0, r4
    451c:	ebffffd6 	bl	447c <fdt_next_property_offset>
    4520:	e2505000 	subs	r5, r0, #0
    4524:	ba000016 	blt	4584 <fdt_get_property_namelen+0x94>
    4528:	e1a00004 	mov	r0, r4
    452c:	e1a01005 	mov	r1, r5
    4530:	e1a02008 	mov	r2, r8
    4534:	ebffffd8 	bl	449c <fdt_get_property_by_offset>
    4538:	e2506000 	subs	r6, r0, #0
    453c:	e1a00004 	mov	r0, r4
    4540:	0a00000e 	beq	4580 <fdt_get_property_namelen+0x90>
    4544:	e596c008 	ldr	ip, [r6, #8]
    4548:	e6bf1f3c 	rev	r1, ip
    454c:	ebffff28 	bl	41f4 <fdt_string>
    4550:	e1a09000 	mov	r9, r0
    4554:	ebfffc07 	bl	3578 <strlen>
    4558:	e1500007 	cmp	r0, r7
    455c:	1affffec 	bne	4514 <fdt_get_property_namelen+0x24>
    4560:	e1a00009 	mov	r0, r9
    4564:	e1a0100a 	mov	r1, sl
    4568:	e1a02007 	mov	r2, r7
    456c:	ebfffc09 	bl	3598 <memcmp>
    4570:	e3500000 	cmp	r0, #0
    4574:	1affffe6 	bne	4514 <fdt_get_property_namelen+0x24>
    4578:	e1a00006 	mov	r0, r6
    457c:	e8bd87f0 	pop	{r4, r5, r6, r7, r8, r9, sl, pc}
    4580:	e3e0500c 	mvn	r5, #12
    4584:	e3580000 	cmp	r8, #0
    4588:	13a06000 	movne	r6, #0
    458c:	01a06008 	moveq	r6, r8
    4590:	15885000 	strne	r5, [r8]
    4594:	e1a00006 	mov	r0, r6
    4598:	e8bd87f0 	pop	{r4, r5, r6, r7, r8, r9, sl, pc}

0000459c <fdt_get_property>:
    459c:	e92d40f0 	push	{r4, r5, r6, r7, lr}
    45a0:	e1a07003 	mov	r7, r3
    45a4:	e24dd00c 	sub	sp, sp, #12
    45a8:	e1a04002 	mov	r4, r2
    45ac:	e1a05000 	mov	r5, r0
    45b0:	e1a06001 	mov	r6, r1
    45b4:	e1a00002 	mov	r0, r2
    45b8:	ebfffbee 	bl	3578 <strlen>
    45bc:	e58d7000 	str	r7, [sp]
    45c0:	e1a03000 	mov	r3, r0
    45c4:	e1a01006 	mov	r1, r6
    45c8:	e1a00005 	mov	r0, r5
    45cc:	e1a02004 	mov	r2, r4
    45d0:	ebffffc6 	bl	44f0 <fdt_get_property_namelen>
    45d4:	e28dd00c 	add	sp, sp, #12
    45d8:	e8bd80f0 	pop	{r4, r5, r6, r7, pc}

000045dc <fdt_getprop_namelen>:
    45dc:	e52de004 	push	{lr}		; (str lr, [sp, #-4]!)
    45e0:	e24dd00c 	sub	sp, sp, #12
    45e4:	e59dc010 	ldr	ip, [sp, #16]
    45e8:	e58dc000 	str	ip, [sp]
    45ec:	ebffffbf 	bl	44f0 <fdt_get_property_namelen>
    45f0:	e3500000 	cmp	r0, #0
    45f4:	1280000c 	addne	r0, r0, #12
    45f8:	e28dd00c 	add	sp, sp, #12
    45fc:	e8bd8000 	ldmfd	sp!, {pc}

00004600 <fdt_getprop_by_offset>:
    4600:	e92d4070 	push	{r4, r5, r6, lr}
    4604:	e1a05002 	mov	r5, r2
    4608:	e1a02003 	mov	r2, r3
    460c:	e1a06000 	mov	r6, r0
    4610:	ebffffa1 	bl	449c <fdt_get_property_by_offset>
    4614:	e2504000 	subs	r4, r0, #0
    4618:	0a000008 	beq	4640 <fdt_getprop_by_offset+0x40>
    461c:	e3550000 	cmp	r5, #0
    4620:	0a000004 	beq	4638 <fdt_getprop_by_offset+0x38>
    4624:	e5941008 	ldr	r1, [r4, #8]
    4628:	e1a00006 	mov	r0, r6
    462c:	e6bf1f31 	rev	r1, r1
    4630:	ebfffeef 	bl	41f4 <fdt_string>
    4634:	e5850000 	str	r0, [r5]
    4638:	e284000c 	add	r0, r4, #12
    463c:	e8bd8070 	pop	{r4, r5, r6, pc}
    4640:	e1a00004 	mov	r0, r4
    4644:	e8bd8070 	pop	{r4, r5, r6, pc}

00004648 <fdt_getprop>:
    4648:	e92d40f0 	push	{r4, r5, r6, r7, lr}
    464c:	e1a07003 	mov	r7, r3
    4650:	e24dd00c 	sub	sp, sp, #12
    4654:	e1a04002 	mov	r4, r2
    4658:	e1a05000 	mov	r5, r0
    465c:	e1a06001 	mov	r6, r1
    4660:	e1a00002 	mov	r0, r2
    4664:	ebfffbc3 	bl	3578 <strlen>
    4668:	e58d7000 	str	r7, [sp]
    466c:	e1a03000 	mov	r3, r0
    4670:	e1a01006 	mov	r1, r6
    4674:	e1a00005 	mov	r0, r5
    4678:	e1a02004 	mov	r2, r4
    467c:	ebffffd6 	bl	45dc <fdt_getprop_namelen>
    4680:	e28dd00c 	add	sp, sp, #12
    4684:	e8bd80f0 	pop	{r4, r5, r6, r7, pc}

00004688 <fdt_get_phandle>:
    4688:	e59f2070 	ldr	r2, [pc, #112]	; 4700 <fdt_get_phandle+0x78>
    468c:	e92d4030 	push	{r4, r5, lr}
    4690:	e24dd00c 	sub	sp, sp, #12
    4694:	e28d3004 	add	r3, sp, #4
    4698:	e1a05000 	mov	r5, r0
    469c:	e08f2002 	add	r2, pc, r2
    46a0:	e1a04001 	mov	r4, r1
    46a4:	ebffffe7 	bl	4648 <fdt_getprop>
    46a8:	e3500000 	cmp	r0, #0
    46ac:	0a000002 	beq	46bc <fdt_get_phandle+0x34>
    46b0:	e59d2004 	ldr	r2, [sp, #4]
    46b4:	e3520004 	cmp	r2, #4
    46b8:	0a00000d 	beq	46f4 <fdt_get_phandle+0x6c>
    46bc:	e59f2040 	ldr	r2, [pc, #64]	; 4704 <fdt_get_phandle+0x7c>
    46c0:	e1a00005 	mov	r0, r5
    46c4:	e1a01004 	mov	r1, r4
    46c8:	e28d3004 	add	r3, sp, #4
    46cc:	e08f2002 	add	r2, pc, r2
    46d0:	ebffffdc 	bl	4648 <fdt_getprop>
    46d4:	e3500000 	cmp	r0, #0
    46d8:	0a000003 	beq	46ec <fdt_get_phandle+0x64>
    46dc:	e59d2004 	ldr	r2, [sp, #4]
    46e0:	e3520004 	cmp	r2, #4
    46e4:	13a00000 	movne	r0, #0
    46e8:	0a000001 	beq	46f4 <fdt_get_phandle+0x6c>
    46ec:	e28dd00c 	add	sp, sp, #12
    46f0:	e8bd8030 	pop	{r4, r5, pc}
    46f4:	e5900000 	ldr	r0, [r0]
    46f8:	e6bf0f30 	rev	r0, r0
    46fc:	eafffffa 	b	46ec <fdt_get_phandle+0x64>
    4700:	00001dc8 	.word	0x00001dc8
    4704:	00001da0 	.word	0x00001da0

00004708 <fdt_get_alias_namelen>:
    4708:	e92d4070 	push	{r4, r5, r6, lr}
    470c:	e1a04001 	mov	r4, r1
    4710:	e59f1040 	ldr	r1, [pc, #64]	; 4758 <fdt_get_alias_namelen+0x50>
    4714:	e24dd008 	sub	sp, sp, #8
    4718:	e1a06002 	mov	r6, r2
    471c:	e1a05000 	mov	r5, r0
    4720:	e08f1001 	add	r1, pc, r1
    4724:	eb00000c 	bl	475c <fdt_path_offset>
    4728:	e2501000 	subs	r1, r0, #0
    472c:	ba000007 	blt	4750 <fdt_get_alias_namelen+0x48>
    4730:	e3a0c000 	mov	ip, #0
    4734:	e1a00005 	mov	r0, r5
    4738:	e1a02004 	mov	r2, r4
    473c:	e1a03006 	mov	r3, r6
    4740:	e58dc000 	str	ip, [sp]
    4744:	ebffffa4 	bl	45dc <fdt_getprop_namelen>
    4748:	e28dd008 	add	sp, sp, #8
    474c:	e8bd8070 	pop	{r4, r5, r6, pc}
    4750:	e3a00000 	mov	r0, #0
    4754:	eafffffb 	b	4748 <fdt_get_alias_namelen+0x40>
    4758:	00001d5c 	.word	0x00001d5c

0000475c <fdt_path_offset>:
    475c:	e92d40f8 	push	{r3, r4, r5, r6, r7, lr}
    4760:	e1a06000 	mov	r6, r0
    4764:	e1a00001 	mov	r0, r1
    4768:	e1a04001 	mov	r4, r1
    476c:	ebfffb81 	bl	3578 <strlen>
    4770:	e1a07000 	mov	r7, r0
    4774:	e1a00006 	mov	r0, r6
    4778:	eb0001bb 	bl	4e6c <fdt_check_header>
    477c:	e2505000 	subs	r5, r0, #0
    4780:	1a00002f 	bne	4844 <fdt_path_offset+0xe8>
    4784:	e5d42000 	ldrb	r2, [r4]
    4788:	e0847007 	add	r7, r4, r7
    478c:	e352002f 	cmp	r2, #47	; 0x2f
    4790:	0a00000f 	beq	47d4 <fdt_path_offset+0x78>
    4794:	e1a00004 	mov	r0, r4
    4798:	e3a0102f 	mov	r1, #47	; 0x2f
    479c:	ebfffba2 	bl	362c <strchr>
    47a0:	e3500000 	cmp	r0, #0
    47a4:	e1a01004 	mov	r1, r4
    47a8:	11a04000 	movne	r4, r0
    47ac:	01a04007 	moveq	r4, r7
    47b0:	e0612004 	rsb	r2, r1, r4
    47b4:	e1a00006 	mov	r0, r6
    47b8:	ebffffd2 	bl	4708 <fdt_get_alias_namelen>
    47bc:	e2501000 	subs	r1, r0, #0
    47c0:	0a00001e 	beq	4840 <fdt_path_offset+0xe4>
    47c4:	e1a00006 	mov	r0, r6
    47c8:	ebffffe3 	bl	475c <fdt_path_offset>
    47cc:	e5d42000 	ldrb	r2, [r4]
    47d0:	e1a05000 	mov	r5, r0
    47d4:	e3520000 	cmp	r2, #0
    47d8:	0a000019 	beq	4844 <fdt_path_offset+0xe8>
    47dc:	e352002f 	cmp	r2, #47	; 0x2f
    47e0:	1a000007 	bne	4804 <fdt_path_offset+0xa8>
    47e4:	e2843001 	add	r3, r4, #1
    47e8:	e5d32000 	ldrb	r2, [r3]
    47ec:	e1a04003 	mov	r4, r3
    47f0:	e2833001 	add	r3, r3, #1
    47f4:	e352002f 	cmp	r2, #47	; 0x2f
    47f8:	0afffffa 	beq	47e8 <fdt_path_offset+0x8c>
    47fc:	e3520000 	cmp	r2, #0
    4800:	0a00000f 	beq	4844 <fdt_path_offset+0xe8>
    4804:	e1a00004 	mov	r0, r4
    4808:	e3a0102f 	mov	r1, #47	; 0x2f
    480c:	ebfffb86 	bl	362c <strchr>
    4810:	e3500000 	cmp	r0, #0
    4814:	e1a02004 	mov	r2, r4
    4818:	11a04000 	movne	r4, r0
    481c:	01a04007 	moveq	r4, r7
    4820:	e1a01005 	mov	r1, r5
    4824:	e0623004 	rsb	r3, r2, r4
    4828:	e1a00006 	mov	r0, r6
    482c:	ebfffeaa 	bl	42dc <fdt_subnode_offset_namelen>
    4830:	e2505000 	subs	r5, r0, #0
    4834:	ba000002 	blt	4844 <fdt_path_offset+0xe8>
    4838:	e5d42000 	ldrb	r2, [r4]
    483c:	eaffffe4 	b	47d4 <fdt_path_offset+0x78>
    4840:	e3e05004 	mvn	r5, #4
    4844:	e1a00005 	mov	r0, r5
    4848:	e8bd80f8 	pop	{r3, r4, r5, r6, r7, pc}

0000484c <fdt_get_alias>:
    484c:	e92d4038 	push	{r3, r4, r5, lr}
    4850:	e1a04001 	mov	r4, r1
    4854:	e1a05000 	mov	r5, r0
    4858:	e1a00001 	mov	r0, r1
    485c:	ebfffb45 	bl	3578 <strlen>
    4860:	e1a01004 	mov	r1, r4
    4864:	e1a02000 	mov	r2, r0
    4868:	e1a00005 	mov	r0, r5
    486c:	e8bd4038 	pop	{r3, r4, r5, lr}
    4870:	eaffffa4 	b	4708 <fdt_get_alias_namelen>

00004874 <fdt_get_path>:
    4874:	e92d4ff0 	push	{r4, r5, r6, r7, r8, r9, sl, fp, lr}
    4878:	e24dd00c 	sub	sp, sp, #12
    487c:	e1a06001 	mov	r6, r1
    4880:	e1a0b002 	mov	fp, r2
    4884:	e1a0a003 	mov	sl, r3
    4888:	e1a07000 	mov	r7, r0
    488c:	eb000176 	bl	4e6c <fdt_check_header>
    4890:	e2508000 	subs	r8, r0, #0
    4894:	1a000041 	bne	49a0 <fdt_get_path+0x12c>
    4898:	e35a0001 	cmp	sl, #1
    489c:	da00004a 	ble	49cc <fdt_get_path+0x158>
    48a0:	e3560000 	cmp	r6, #0
    48a4:	e58d8000 	str	r8, [sp]
    48a8:	a1a09008 	movge	r9, r8
    48ac:	a1a01008 	movge	r1, r8
    48b0:	a1a04008 	movge	r4, r8
    48b4:	a1a05008 	movge	r5, r8
    48b8:	ba000045 	blt	49d4 <fdt_get_path+0x160>
    48bc:	e1550001 	cmp	r5, r1
    48c0:	aa000019 	bge	492c <fdt_get_path+0xb8>
    48c4:	e1590006 	cmp	r9, r6
    48c8:	0a00002c 	beq	4980 <fdt_get_path+0x10c>
    48cc:	e1a01009 	mov	r1, r9
    48d0:	e1a00007 	mov	r0, r7
    48d4:	e1a0200d 	mov	r2, sp
    48d8:	eb0001f4 	bl	50b0 <fdt_next_node>
    48dc:	e1560000 	cmp	r6, r0
    48e0:	a3500000 	cmpge	r0, #0
    48e4:	e1a09000 	mov	r9, r0
    48e8:	ba00002f 	blt	49ac <fdt_get_path+0x138>
    48ec:	e59d1000 	ldr	r1, [sp]
    48f0:	e1550001 	cmp	r5, r1
    48f4:	c1a02005 	movgt	r2, r5
    48f8:	daffffef 	ble	48bc <fdt_get_path+0x48>
    48fc:	e08bc004 	add	ip, fp, r4
    4900:	e24cc001 	sub	ip, ip, #1
    4904:	e2444001 	sub	r4, r4, #1
    4908:	e55c5001 	ldrb	r5, [ip, #-1]
    490c:	e355002f 	cmp	r5, #47	; 0x2f
    4910:	1afffffa 	bne	4900 <fdt_get_path+0x8c>
    4914:	e2422001 	sub	r2, r2, #1
    4918:	e1520001 	cmp	r2, r1
    491c:	1afffff6 	bne	48fc <fdt_get_path+0x88>
    4920:	e1a05001 	mov	r5, r1
    4924:	e1550001 	cmp	r5, r1
    4928:	baffffe5 	blt	48c4 <fdt_get_path+0x50>
    492c:	e1a01009 	mov	r1, r9
    4930:	e1a00007 	mov	r0, r7
    4934:	e28d2004 	add	r2, sp, #4
    4938:	ebfffeaa 	bl	43e8 <fdt_get_name>
    493c:	e2501000 	subs	r1, r0, #0
    4940:	0a00001f 	beq	49c4 <fdt_get_path+0x150>
    4944:	e59d2004 	ldr	r2, [sp, #4]
    4948:	e084c002 	add	ip, r4, r2
    494c:	e28cc001 	add	ip, ip, #1
    4950:	e15a000c 	cmp	sl, ip
    4954:	baffffda 	blt	48c4 <fdt_get_path+0x50>
    4958:	e08b0004 	add	r0, fp, r4
    495c:	e2855001 	add	r5, r5, #1
    4960:	ebfffabe 	bl	3460 <memcpy>
    4964:	e59d2004 	ldr	r2, [sp, #4]
    4968:	e1590006 	cmp	r9, r6
    496c:	e3a0302f 	mov	r3, #47	; 0x2f
    4970:	e0842002 	add	r2, r4, r2
    4974:	e2824001 	add	r4, r2, #1
    4978:	e7cb3002 	strb	r3, [fp, r2]
    497c:	1affffd2 	bne	48cc <fdt_get_path+0x58>
    4980:	e59d3000 	ldr	r3, [sp]
    4984:	e2833001 	add	r3, r3, #1
    4988:	e1550003 	cmp	r5, r3
    498c:	ba00000e 	blt	49cc <fdt_get_path+0x158>
    4990:	e3540001 	cmp	r4, #1
    4994:	e3a03000 	mov	r3, #0
    4998:	c2444001 	subgt	r4, r4, #1
    499c:	e7cb3004 	strb	r3, [fp, r4]
    49a0:	e1a00008 	mov	r0, r8
    49a4:	e28dd00c 	add	sp, sp, #12
    49a8:	e8bd8ff0 	pop	{r4, r5, r6, r7, r8, r9, sl, fp, pc}
    49ac:	e3700001 	cmn	r0, #1
    49b0:	aa000007 	bge	49d4 <fdt_get_path+0x160>
    49b4:	e3700004 	cmn	r0, #4
    49b8:	11a08000 	movne	r8, r0
    49bc:	03e0800a 	mvneq	r8, #10
    49c0:	eafffff6 	b	49a0 <fdt_get_path+0x12c>
    49c4:	e59d8004 	ldr	r8, [sp, #4]
    49c8:	eafffff4 	b	49a0 <fdt_get_path+0x12c>
    49cc:	e3e08002 	mvn	r8, #2
    49d0:	eafffff2 	b	49a0 <fdt_get_path+0x12c>
    49d4:	e3e08003 	mvn	r8, #3
    49d8:	eafffff0 	b	49a0 <fdt_get_path+0x12c>

000049dc <fdt_supernode_atdepth_offset>:
    49dc:	e92d45f0 	push	{r4, r5, r6, r7, r8, sl, lr}
    49e0:	e24dd00c 	sub	sp, sp, #12
    49e4:	e1a04001 	mov	r4, r1
    49e8:	e1a07002 	mov	r7, r2
    49ec:	e1a0a003 	mov	sl, r3
    49f0:	e1a08000 	mov	r8, r0
    49f4:	eb00011c 	bl	4e6c <fdt_check_header>
    49f8:	e250c000 	subs	ip, r0, #0
    49fc:	1a000019 	bne	4a68 <fdt_supernode_atdepth_offset+0x8c>
    4a00:	e3570000 	cmp	r7, #0
    4a04:	ba000021 	blt	4a90 <fdt_supernode_atdepth_offset+0xb4>
    4a08:	e3540000 	cmp	r4, #0
    4a0c:	e58dc004 	str	ip, [sp, #4]
    4a10:	a1a0600c 	movge	r6, ip
    4a14:	a3e0500c 	mvnge	r5, #12
    4a18:	aa000006 	bge	4a38 <fdt_supernode_atdepth_offset+0x5c>
    4a1c:	ea000019 	b	4a88 <fdt_supernode_atdepth_offset+0xac>
    4a20:	eb0001a2 	bl	50b0 <fdt_next_node>
    4a24:	e1540000 	cmp	r4, r0
    4a28:	a3500000 	cmpge	r0, #0
    4a2c:	e1a0c000 	mov	ip, r0
    4a30:	ba00000f 	blt	4a74 <fdt_supernode_atdepth_offset+0x98>
    4a34:	e59d6004 	ldr	r6, [sp, #4]
    4a38:	e1570006 	cmp	r7, r6
    4a3c:	e1a00008 	mov	r0, r8
    4a40:	01a0500c 	moveq	r5, ip
    4a44:	e154000c 	cmp	r4, ip
    4a48:	e1a0100c 	mov	r1, ip
    4a4c:	e28d2004 	add	r2, sp, #4
    4a50:	1afffff2 	bne	4a20 <fdt_supernode_atdepth_offset+0x44>
    4a54:	e35a0000 	cmp	sl, #0
    4a58:	158a6000 	strne	r6, [sl]
    4a5c:	e1570006 	cmp	r7, r6
    4a60:	d1a0c005 	movle	ip, r5
    4a64:	c3e0c000 	mvngt	ip, #0
    4a68:	e1a0000c 	mov	r0, ip
    4a6c:	e28dd00c 	add	sp, sp, #12
    4a70:	e8bd85f0 	pop	{r4, r5, r6, r7, r8, sl, pc}
    4a74:	e3700001 	cmn	r0, #1
    4a78:	aa000002 	bge	4a88 <fdt_supernode_atdepth_offset+0xac>
    4a7c:	e3700004 	cmn	r0, #4
    4a80:	03e0c00a 	mvneq	ip, #10
    4a84:	eafffff7 	b	4a68 <fdt_supernode_atdepth_offset+0x8c>
    4a88:	e3e0c003 	mvn	ip, #3
    4a8c:	eafffff5 	b	4a68 <fdt_supernode_atdepth_offset+0x8c>
    4a90:	e3e0c000 	mvn	ip, #0
    4a94:	eafffff3 	b	4a68 <fdt_supernode_atdepth_offset+0x8c>

00004a98 <fdt_node_depth>:
    4a98:	e52de004 	push	{lr}		; (str lr, [sp, #-4]!)
    4a9c:	e24dd00c 	sub	sp, sp, #12
    4aa0:	e3a02000 	mov	r2, #0
    4aa4:	e28d3004 	add	r3, sp, #4
    4aa8:	ebffffcb 	bl	49dc <fdt_supernode_atdepth_offset>
    4aac:	e3500000 	cmp	r0, #0
    4ab0:	0a000002 	beq	4ac0 <fdt_node_depth+0x28>
    4ab4:	a3e0000c 	mvnge	r0, #12
    4ab8:	e28dd00c 	add	sp, sp, #12
    4abc:	e8bd8000 	ldmfd	sp!, {pc}
    4ac0:	e59d0004 	ldr	r0, [sp, #4]
    4ac4:	eafffffb 	b	4ab8 <fdt_node_depth+0x20>

00004ac8 <fdt_parent_offset>:
    4ac8:	e92d4070 	push	{r4, r5, r6, lr}
    4acc:	e1a05000 	mov	r5, r0
    4ad0:	e1a04001 	mov	r4, r1
    4ad4:	ebffffef 	bl	4a98 <fdt_node_depth>
    4ad8:	e2502000 	subs	r2, r0, #0
    4adc:	b8bd8070 	poplt	{r4, r5, r6, pc}
    4ae0:	e1a00005 	mov	r0, r5
    4ae4:	e1a01004 	mov	r1, r4
    4ae8:	e2422001 	sub	r2, r2, #1
    4aec:	e3a03000 	mov	r3, #0
    4af0:	e8bd4070 	pop	{r4, r5, r6, lr}
    4af4:	eaffffb8 	b	49dc <fdt_supernode_atdepth_offset>

00004af8 <fdt_node_offset_by_prop_value>:
    4af8:	e92d45f0 	push	{r4, r5, r6, r7, r8, sl, lr}
    4afc:	e24dd00c 	sub	sp, sp, #12
    4b00:	e1a0a001 	mov	sl, r1
    4b04:	e1a07002 	mov	r7, r2
    4b08:	e1a08003 	mov	r8, r3
    4b0c:	e1a05000 	mov	r5, r0
    4b10:	e59d6028 	ldr	r6, [sp, #40]	; 0x28
    4b14:	eb0000d4 	bl	4e6c <fdt_check_header>
    4b18:	e2504000 	subs	r4, r0, #0
    4b1c:	0a000002 	beq	4b2c <fdt_node_offset_by_prop_value+0x34>
    4b20:	e1a00004 	mov	r0, r4
    4b24:	e28dd00c 	add	sp, sp, #12
    4b28:	e8bd85f0 	pop	{r4, r5, r6, r7, r8, sl, pc}
    4b2c:	e1a02004 	mov	r2, r4
    4b30:	e1a0100a 	mov	r1, sl
    4b34:	e1a00005 	mov	r0, r5
    4b38:	eb00015c 	bl	50b0 <fdt_next_node>
    4b3c:	e2504000 	subs	r4, r0, #0
    4b40:	aa000006 	bge	4b60 <fdt_node_offset_by_prop_value+0x68>
    4b44:	eafffff5 	b	4b20 <fdt_node_offset_by_prop_value+0x28>
    4b48:	e1a01004 	mov	r1, r4
    4b4c:	e1a00005 	mov	r0, r5
    4b50:	e3a02000 	mov	r2, #0
    4b54:	eb000155 	bl	50b0 <fdt_next_node>
    4b58:	e2504000 	subs	r4, r0, #0
    4b5c:	baffffef 	blt	4b20 <fdt_node_offset_by_prop_value+0x28>
    4b60:	e1a00005 	mov	r0, r5
    4b64:	e1a01004 	mov	r1, r4
    4b68:	e1a02007 	mov	r2, r7
    4b6c:	e28d3004 	add	r3, sp, #4
    4b70:	ebfffeb4 	bl	4648 <fdt_getprop>
    4b74:	e3500000 	cmp	r0, #0
    4b78:	0afffff2 	beq	4b48 <fdt_node_offset_by_prop_value+0x50>
    4b7c:	e59dc004 	ldr	ip, [sp, #4]
    4b80:	e15c0006 	cmp	ip, r6
    4b84:	1affffef 	bne	4b48 <fdt_node_offset_by_prop_value+0x50>
    4b88:	e1a01008 	mov	r1, r8
    4b8c:	e1a02006 	mov	r2, r6
    4b90:	ebfffa80 	bl	3598 <memcmp>
    4b94:	e3500000 	cmp	r0, #0
    4b98:	1affffea 	bne	4b48 <fdt_node_offset_by_prop_value+0x50>
    4b9c:	eaffffdf 	b	4b20 <fdt_node_offset_by_prop_value+0x28>

00004ba0 <fdt_node_offset_by_phandle>:
    4ba0:	e2413001 	sub	r3, r1, #1
    4ba4:	e92d4070 	push	{r4, r5, r6, lr}
    4ba8:	e3730003 	cmn	r3, #3
    4bac:	e1a06001 	mov	r6, r1
    4bb0:	e1a05000 	mov	r5, r0
    4bb4:	8a000015 	bhi	4c10 <fdt_node_offset_by_phandle+0x70>
    4bb8:	eb0000ab 	bl	4e6c <fdt_check_header>
    4bbc:	e2504000 	subs	r4, r0, #0
    4bc0:	0a000001 	beq	4bcc <fdt_node_offset_by_phandle+0x2c>
    4bc4:	e1a00004 	mov	r0, r4
    4bc8:	e8bd8070 	pop	{r4, r5, r6, pc}
    4bcc:	e1a02004 	mov	r2, r4
    4bd0:	e1a00005 	mov	r0, r5
    4bd4:	e3e01000 	mvn	r1, #0
    4bd8:	ea000007 	b	4bfc <fdt_node_offset_by_phandle+0x5c>
    4bdc:	e1a01004 	mov	r1, r4
    4be0:	e1a00005 	mov	r0, r5
    4be4:	ebfffea7 	bl	4688 <fdt_get_phandle>
    4be8:	e1500006 	cmp	r0, r6
    4bec:	e1a01004 	mov	r1, r4
    4bf0:	e3a02000 	mov	r2, #0
    4bf4:	e1a00005 	mov	r0, r5
    4bf8:	0afffff1 	beq	4bc4 <fdt_node_offset_by_phandle+0x24>
    4bfc:	eb00012b 	bl	50b0 <fdt_next_node>
    4c00:	e2504000 	subs	r4, r0, #0
    4c04:	aafffff4 	bge	4bdc <fdt_node_offset_by_phandle+0x3c>
    4c08:	e1a00004 	mov	r0, r4
    4c0c:	e8bd8070 	pop	{r4, r5, r6, pc}
    4c10:	e3e04005 	mvn	r4, #5
    4c14:	eaffffea 	b	4bc4 <fdt_node_offset_by_phandle+0x24>

00004c18 <fdt_node_check_compatible>:
    4c18:	e92d41f0 	push	{r4, r5, r6, r7, r8, lr}
    4c1c:	e1a07002 	mov	r7, r2
    4c20:	e59f2094 	ldr	r2, [pc, #148]	; 4cbc <fdt_node_check_compatible+0xa4>
    4c24:	e24dd008 	sub	sp, sp, #8
    4c28:	e28d3004 	add	r3, sp, #4
    4c2c:	e08f2002 	add	r2, pc, r2
    4c30:	ebfffe84 	bl	4648 <fdt_getprop>
    4c34:	e2504000 	subs	r4, r0, #0
    4c38:	059d0004 	ldreq	r0, [sp, #4]
    4c3c:	0a00001a 	beq	4cac <fdt_node_check_compatible+0x94>
    4c40:	e59d5004 	ldr	r5, [sp, #4]
    4c44:	e1a00007 	mov	r0, r7
    4c48:	ebfffa4a 	bl	3578 <strlen>
    4c4c:	e1a06000 	mov	r6, r0
    4c50:	e1550000 	cmp	r5, r0
    4c54:	ba000016 	blt	4cb4 <fdt_node_check_compatible+0x9c>
    4c58:	e2808001 	add	r8, r0, #1
    4c5c:	ea000008 	b	4c84 <fdt_node_check_compatible+0x6c>
    4c60:	ebfffa65 	bl	35fc <memchr>
    4c64:	e3500000 	cmp	r0, #0
    4c68:	e0641000 	rsb	r1, r4, r0
    4c6c:	e2804001 	add	r4, r0, #1
    4c70:	e1e01001 	mvn	r1, r1
    4c74:	0a00000e 	beq	4cb4 <fdt_node_check_compatible+0x9c>
    4c78:	e0855001 	add	r5, r5, r1
    4c7c:	e1560005 	cmp	r6, r5
    4c80:	ca00000b 	bgt	4cb4 <fdt_node_check_compatible+0x9c>
    4c84:	e1a01004 	mov	r1, r4
    4c88:	e1a02008 	mov	r2, r8
    4c8c:	e1a00007 	mov	r0, r7
    4c90:	ebfffa40 	bl	3598 <memcmp>
    4c94:	e2503000 	subs	r3, r0, #0
    4c98:	e1a02005 	mov	r2, r5
    4c9c:	e3a01000 	mov	r1, #0
    4ca0:	e1a00004 	mov	r0, r4
    4ca4:	1affffed 	bne	4c60 <fdt_node_check_compatible+0x48>
    4ca8:	e1a00003 	mov	r0, r3
    4cac:	e28dd008 	add	sp, sp, #8
    4cb0:	e8bd81f0 	pop	{r4, r5, r6, r7, r8, pc}
    4cb4:	e3a00001 	mov	r0, #1
    4cb8:	eafffffb 	b	4cac <fdt_node_check_compatible+0x94>
    4cbc:	0000185c 	.word	0x0000185c

00004cc0 <fdt_node_offset_by_compatible>:
    4cc0:	e92d4070 	push	{r4, r5, r6, lr}
    4cc4:	e1a04001 	mov	r4, r1
    4cc8:	e1a06002 	mov	r6, r2
    4ccc:	e1a05000 	mov	r5, r0
    4cd0:	eb000065 	bl	4e6c <fdt_check_header>
    4cd4:	e2503000 	subs	r3, r0, #0
    4cd8:	0a000001 	beq	4ce4 <fdt_node_offset_by_compatible+0x24>
    4cdc:	e1a00003 	mov	r0, r3
    4ce0:	e8bd8070 	pop	{r4, r5, r6, pc}
    4ce4:	e1a01004 	mov	r1, r4
    4ce8:	e1a02003 	mov	r2, r3
    4cec:	e1a00005 	mov	r0, r5
    4cf0:	ea00000b 	b	4d24 <fdt_node_offset_by_compatible+0x64>
    4cf4:	e1a01004 	mov	r1, r4
    4cf8:	e1a02006 	mov	r2, r6
    4cfc:	e1a00005 	mov	r0, r5
    4d00:	ebffffc4 	bl	4c18 <fdt_node_check_compatible>
    4d04:	e1a03000 	mov	r3, r0
    4d08:	e1a01004 	mov	r1, r4
    4d0c:	e3730001 	cmn	r3, #1
    4d10:	e1a00005 	mov	r0, r5
    4d14:	e3a02000 	mov	r2, #0
    4d18:	baffffef 	blt	4cdc <fdt_node_offset_by_compatible+0x1c>
    4d1c:	e1530002 	cmp	r3, r2
    4d20:	0a000002 	beq	4d30 <fdt_node_offset_by_compatible+0x70>
    4d24:	eb0000e1 	bl	50b0 <fdt_next_node>
    4d28:	e2504000 	subs	r4, r0, #0
    4d2c:	aafffff0 	bge	4cf4 <fdt_node_offset_by_compatible+0x34>
    4d30:	e1a03004 	mov	r3, r4
    4d34:	e1a00003 	mov	r0, r3
    4d38:	e8bd8070 	pop	{r4, r5, r6, pc}

00004d3c <fdt_setprop_inplace>:
    4d3c:	e92d4010 	push	{r4, lr}
    4d40:	e24dd008 	sub	sp, sp, #8
    4d44:	e1a04003 	mov	r4, r3
    4d48:	e28d3004 	add	r3, sp, #4
    4d4c:	ebfffe3d 	bl	4648 <fdt_getprop>
    4d50:	e3500000 	cmp	r0, #0
    4d54:	059d0004 	ldreq	r0, [sp, #4]
    4d58:	0a000007 	beq	4d7c <fdt_setprop_inplace+0x40>
    4d5c:	e59d2004 	ldr	r2, [sp, #4]
    4d60:	e59d3010 	ldr	r3, [sp, #16]
    4d64:	e1520003 	cmp	r2, r3
    4d68:	13e00002 	mvnne	r0, #2
    4d6c:	1a000002 	bne	4d7c <fdt_setprop_inplace+0x40>
    4d70:	e1a01004 	mov	r1, r4
    4d74:	ebfff9b9 	bl	3460 <memcpy>
    4d78:	e3a00000 	mov	r0, #0
    4d7c:	e28dd008 	add	sp, sp, #8
    4d80:	e8bd8010 	pop	{r4, pc}

00004d84 <fdt_nop_property>:
    4d84:	e52de004 	push	{lr}		; (str lr, [sp, #-4]!)
    4d88:	e24dd00c 	sub	sp, sp, #12
    4d8c:	e28d3004 	add	r3, sp, #4
    4d90:	ebfffe01 	bl	459c <fdt_get_property>
    4d94:	e3500000 	cmp	r0, #0
    4d98:	059d0004 	ldreq	r0, [sp, #4]
    4d9c:	0a000009 	beq	4dc8 <fdt_nop_property+0x44>
    4da0:	e59d3004 	ldr	r3, [sp, #4]
    4da4:	e283300c 	add	r3, r3, #12
    4da8:	e0803003 	add	r3, r0, r3
    4dac:	e1500003 	cmp	r0, r3
    4db0:	33a02301 	movcc	r2, #67108864	; 0x4000000
    4db4:	2a000002 	bcs	4dc4 <fdt_nop_property+0x40>
    4db8:	e4802004 	str	r2, [r0], #4
    4dbc:	e1500003 	cmp	r0, r3
    4dc0:	3afffffc 	bcc	4db8 <fdt_nop_property+0x34>
    4dc4:	e3a00000 	mov	r0, #0
    4dc8:	e28dd00c 	add	sp, sp, #12
    4dcc:	e8bd8000 	ldmfd	sp!, {pc}

00004dd0 <_fdt_node_end_offset>:
    4dd0:	e3510000 	cmp	r1, #0
    4dd4:	e92d4010 	push	{r4, lr}
    4dd8:	e3a03000 	mov	r3, #0
    4ddc:	e24dd008 	sub	sp, sp, #8
    4de0:	e1a04000 	mov	r4, r0
    4de4:	e58d3004 	str	r3, [sp, #4]
    4de8:	ba000007 	blt	4e0c <_fdt_node_end_offset+0x3c>
    4dec:	e1a00004 	mov	r0, r4
    4df0:	e28d2004 	add	r2, sp, #4
    4df4:	eb0000ad 	bl	50b0 <fdt_next_node>
    4df8:	e59d3004 	ldr	r3, [sp, #4]
    4dfc:	e1a01000 	mov	r1, r0
    4e00:	e3500000 	cmp	r0, #0
    4e04:	a3530000 	cmpge	r3, #0
    4e08:	aafffff7 	bge	4dec <_fdt_node_end_offset+0x1c>
    4e0c:	e1a00001 	mov	r0, r1
    4e10:	e28dd008 	add	sp, sp, #8
    4e14:	e8bd8010 	pop	{r4, pc}

00004e18 <fdt_nop_node>:
    4e18:	e92d4070 	push	{r4, r5, r6, lr}
    4e1c:	e1a06000 	mov	r6, r0
    4e20:	e1a05001 	mov	r5, r1
    4e24:	ebffffe9 	bl	4dd0 <_fdt_node_end_offset>
    4e28:	e2504000 	subs	r4, r0, #0
    4e2c:	ba00000c 	blt	4e64 <fdt_nop_node+0x4c>
    4e30:	e1a01005 	mov	r1, r5
    4e34:	e3a02000 	mov	r2, #0
    4e38:	e1a00006 	mov	r0, r6
    4e3c:	eb000028 	bl	4ee4 <fdt_offset_ptr>
    4e40:	e0652004 	rsb	r2, r5, r4
    4e44:	e0802002 	add	r2, r0, r2
    4e48:	e1500002 	cmp	r0, r2
    4e4c:	33a01301 	movcc	r1, #67108864	; 0x4000000
    4e50:	2a000002 	bcs	4e60 <fdt_nop_node+0x48>
    4e54:	e4801004 	str	r1, [r0], #4
    4e58:	e1500002 	cmp	r0, r2
    4e5c:	3afffffc 	bcc	4e54 <fdt_nop_node+0x3c>
    4e60:	e3a04000 	mov	r4, #0
    4e64:	e1a00004 	mov	r0, r4
    4e68:	e8bd8070 	pop	{r4, r5, r6, pc}

00004e6c <fdt_check_header>:
    4e6c:	e30f3eed 	movw	r3, #65261	; 0xfeed
    4e70:	e5902000 	ldr	r2, [r0]
    4e74:	e34d300d 	movt	r3, #53261	; 0xd00d
    4e78:	e6bf2f32 	rev	r2, r2
    4e7c:	e1520003 	cmp	r2, r3
    4e80:	0a000009 	beq	4eac <fdt_check_header+0x40>
    4e84:	e3003112 	movw	r3, #274	; 0x112
    4e88:	e3423ff2 	movt	r3, #12274	; 0x2ff2
    4e8c:	e1520003 	cmp	r2, r3
    4e90:	1a000011 	bne	4edc <fdt_check_header+0x70>
    4e94:	e5903024 	ldr	r3, [r0, #36]	; 0x24
    4e98:	e6bf3f33 	rev	r3, r3
    4e9c:	e3530000 	cmp	r3, #0
    4ea0:	1a000009 	bne	4ecc <fdt_check_header+0x60>
    4ea4:	e3e00006 	mvn	r0, #6
    4ea8:	e12fff1e 	bx	lr
    4eac:	e5903014 	ldr	r3, [r0, #20]
    4eb0:	e6bf3f33 	rev	r3, r3
    4eb4:	e353000f 	cmp	r3, #15
    4eb8:	9a000005 	bls	4ed4 <fdt_check_header+0x68>
    4ebc:	e5903018 	ldr	r3, [r0, #24]
    4ec0:	e6bf3f33 	rev	r3, r3
    4ec4:	e3530011 	cmp	r3, #17
    4ec8:	8a000001 	bhi	4ed4 <fdt_check_header+0x68>
    4ecc:	e3a00000 	mov	r0, #0
    4ed0:	e12fff1e 	bx	lr
    4ed4:	e3e00009 	mvn	r0, #9
    4ed8:	e12fff1e 	bx	lr
    4edc:	e3e00008 	mvn	r0, #8
    4ee0:	e12fff1e 	bx	lr

00004ee4 <fdt_offset_ptr>:
    4ee4:	e5903014 	ldr	r3, [r0, #20]
    4ee8:	e6bf3f33 	rev	r3, r3
    4eec:	e3530010 	cmp	r3, #16
    4ef0:	9a000005 	bls	4f0c <fdt_offset_ptr+0x28>
    4ef4:	e0923001 	adds	r3, r2, r1
    4ef8:	2a00000a 	bcs	4f28 <fdt_offset_ptr+0x44>
    4efc:	e590c024 	ldr	ip, [r0, #36]	; 0x24
    4f00:	e6bfcf3c 	rev	ip, ip
    4f04:	e153000c 	cmp	r3, ip
    4f08:	8a000006 	bhi	4f28 <fdt_offset_ptr+0x44>
    4f0c:	e5903008 	ldr	r3, [r0, #8]
    4f10:	e6bf3f33 	rev	r3, r3
    4f14:	e0831001 	add	r1, r3, r1
    4f18:	e0800001 	add	r0, r0, r1
    4f1c:	e1700002 	cmn	r0, r2
    4f20:	23a00000 	movcs	r0, #0
    4f24:	e12fff1e 	bx	lr
    4f28:	e3a00000 	mov	r0, #0
    4f2c:	e12fff1e 	bx	lr

00004f30 <fdt_next_tag>:
    4f30:	e3e03007 	mvn	r3, #7
    4f34:	e92d41f0 	push	{r4, r5, r6, r7, r8, lr}
    4f38:	e5823000 	str	r3, [r2]
    4f3c:	e1a06002 	mov	r6, r2
    4f40:	e3a02004 	mov	r2, #4
    4f44:	e1a07000 	mov	r7, r0
    4f48:	e1a08001 	mov	r8, r1
    4f4c:	ebffffe4 	bl	4ee4 <fdt_offset_ptr>
    4f50:	e3500000 	cmp	r0, #0
    4f54:	0a000011 	beq	4fa0 <fdt_next_tag+0x70>
    4f58:	e5905000 	ldr	r5, [r0]
    4f5c:	e3e0200a 	mvn	r2, #10
    4f60:	e6bf5f35 	rev	r5, r5
    4f64:	e2453001 	sub	r3, r5, #1
    4f68:	e5862000 	str	r2, [r6]
    4f6c:	e2884004 	add	r4, r8, #4
    4f70:	e3530008 	cmp	r3, #8
    4f74:	908ff103 	addls	pc, pc, r3, lsl #2
    4f78:	ea000008 	b	4fa0 <fdt_next_tag+0x70>
    4f7c:	ea00001f 	b	5000 <fdt_next_tag+0xd0>
    4f80:	ea000013 	b	4fd4 <fdt_next_tag+0xa4>
    4f84:	ea000008 	b	4fac <fdt_next_tag+0x7c>
    4f88:	ea000011 	b	4fd4 <fdt_next_tag+0xa4>
    4f8c:	ea000003 	b	4fa0 <fdt_next_tag+0x70>
    4f90:	ea000002 	b	4fa0 <fdt_next_tag+0x70>
    4f94:	ea000001 	b	4fa0 <fdt_next_tag+0x70>
    4f98:	ea000000 	b	4fa0 <fdt_next_tag+0x70>
    4f9c:	ea00000c 	b	4fd4 <fdt_next_tag+0xa4>
    4fa0:	e3a05009 	mov	r5, #9
    4fa4:	e1a00005 	mov	r0, r5
    4fa8:	e8bd81f0 	pop	{r4, r5, r6, r7, r8, pc}
    4fac:	e1a01004 	mov	r1, r4
    4fb0:	e1a00007 	mov	r0, r7
    4fb4:	e3a02004 	mov	r2, #4
    4fb8:	ebffffc9 	bl	4ee4 <fdt_offset_ptr>
    4fbc:	e3500000 	cmp	r0, #0
    4fc0:	0afffff6 	beq	4fa0 <fdt_next_tag+0x70>
    4fc4:	e288300c 	add	r3, r8, #12
    4fc8:	e5904000 	ldr	r4, [r0]
    4fcc:	e6bf4f34 	rev	r4, r4
    4fd0:	e0834004 	add	r4, r3, r4
    4fd4:	e1a01008 	mov	r1, r8
    4fd8:	e1a00007 	mov	r0, r7
    4fdc:	e0682004 	rsb	r2, r8, r4
    4fe0:	ebffffbf 	bl	4ee4 <fdt_offset_ptr>
    4fe4:	e3500000 	cmp	r0, #0
    4fe8:	0affffec 	beq	4fa0 <fdt_next_tag+0x70>
    4fec:	e2844003 	add	r4, r4, #3
    4ff0:	e1a00005 	mov	r0, r5
    4ff4:	e3c44003 	bic	r4, r4, #3
    4ff8:	e5864000 	str	r4, [r6]
    4ffc:	e8bd81f0 	pop	{r4, r5, r6, r7, r8, pc}
    5000:	e1a01004 	mov	r1, r4
    5004:	e3a02001 	mov	r2, #1
    5008:	e1a00007 	mov	r0, r7
    500c:	e0844002 	add	r4, r4, r2
    5010:	ebffffb3 	bl	4ee4 <fdt_offset_ptr>
    5014:	e3500000 	cmp	r0, #0
    5018:	e1a01004 	mov	r1, r4
    501c:	0affffdf 	beq	4fa0 <fdt_next_tag+0x70>
    5020:	e5d03000 	ldrb	r3, [r0]
    5024:	e3530000 	cmp	r3, #0
    5028:	1afffff5 	bne	5004 <fdt_next_tag+0xd4>
    502c:	eaffffe8 	b	4fd4 <fdt_next_tag+0xa4>

00005030 <_fdt_check_node_offset>:
    5030:	e2513000 	subs	r3, r1, #0
    5034:	e52de004 	push	{lr}		; (str lr, [sp, #-4]!)
    5038:	e24dd00c 	sub	sp, sp, #12
    503c:	e58d1004 	str	r1, [sp, #4]
    5040:	ba000008 	blt	5068 <_fdt_check_node_offset+0x38>
    5044:	e3130003 	tst	r3, #3
    5048:	1a000006 	bne	5068 <_fdt_check_node_offset+0x38>
    504c:	e28d2004 	add	r2, sp, #4
    5050:	ebffffb6 	bl	4f30 <fdt_next_tag>
    5054:	e3500001 	cmp	r0, #1
    5058:	1a000002 	bne	5068 <_fdt_check_node_offset+0x38>
    505c:	e59d0004 	ldr	r0, [sp, #4]
    5060:	e28dd00c 	add	sp, sp, #12
    5064:	e8bd8000 	ldmfd	sp!, {pc}
    5068:	e3e00003 	mvn	r0, #3
    506c:	eafffffb 	b	5060 <_fdt_check_node_offset+0x30>

00005070 <_fdt_check_prop_offset>:
    5070:	e2513000 	subs	r3, r1, #0
    5074:	e52de004 	push	{lr}		; (str lr, [sp, #-4]!)
    5078:	e24dd00c 	sub	sp, sp, #12
    507c:	e58d1004 	str	r1, [sp, #4]
    5080:	ba000008 	blt	50a8 <_fdt_check_prop_offset+0x38>
    5084:	e3130003 	tst	r3, #3
    5088:	1a000006 	bne	50a8 <_fdt_check_prop_offset+0x38>
    508c:	e28d2004 	add	r2, sp, #4
    5090:	ebffffa6 	bl	4f30 <fdt_next_tag>
    5094:	e3500003 	cmp	r0, #3
    5098:	1a000002 	bne	50a8 <_fdt_check_prop_offset+0x38>
    509c:	e59d0004 	ldr	r0, [sp, #4]
    50a0:	e28dd00c 	add	sp, sp, #12
    50a4:	e8bd8000 	ldmfd	sp!, {pc}
    50a8:	e3e00003 	mvn	r0, #3
    50ac:	eafffffb 	b	50a0 <_fdt_check_prop_offset+0x30>

000050b0 <fdt_next_node>:
    50b0:	e3510000 	cmp	r1, #0
    50b4:	e92d40f0 	push	{r4, r5, r6, r7, lr}
    50b8:	e3a04000 	mov	r4, #0
    50bc:	e24dd00c 	sub	sp, sp, #12
    50c0:	e1a05002 	mov	r5, r2
    50c4:	e1a06000 	mov	r6, r0
    50c8:	e58d4004 	str	r4, [sp, #4]
    50cc:	ba000004 	blt	50e4 <fdt_next_node+0x34>
    50d0:	ebffffd6 	bl	5030 <_fdt_check_node_offset>
    50d4:	e3500000 	cmp	r0, #0
    50d8:	e1a04000 	mov	r4, r0
    50dc:	e58d0004 	str	r0, [sp, #4]
    50e0:	ba000010 	blt	5128 <fdt_next_node+0x78>
    50e4:	e28d7004 	add	r7, sp, #4
    50e8:	e1a00006 	mov	r0, r6
    50ec:	e1a01004 	mov	r1, r4
    50f0:	e1a02007 	mov	r2, r7
    50f4:	ebffff8d 	bl	4f30 <fdt_next_tag>
    50f8:	e3500002 	cmp	r0, #2
    50fc:	0a000014 	beq	5154 <fdt_next_node+0xa4>
    5100:	e3500009 	cmp	r0, #9
    5104:	0a00000a 	beq	5134 <fdt_next_node+0x84>
    5108:	e3500001 	cmp	r0, #1
    510c:	0a000001 	beq	5118 <fdt_next_node+0x68>
    5110:	e59d4004 	ldr	r4, [sp, #4]
    5114:	eafffff3 	b	50e8 <fdt_next_node+0x38>
    5118:	e3550000 	cmp	r5, #0
    511c:	15953000 	ldrne	r3, [r5]
    5120:	12833001 	addne	r3, r3, #1
    5124:	15853000 	strne	r3, [r5]
    5128:	e1a00004 	mov	r0, r4
    512c:	e28dd00c 	add	sp, sp, #12
    5130:	e8bd80f0 	pop	{r4, r5, r6, r7, pc}
    5134:	e59d4004 	ldr	r4, [sp, #4]
    5138:	e3540000 	cmp	r4, #0
    513c:	aa00000d 	bge	5178 <fdt_next_node+0xc8>
    5140:	e3740008 	cmn	r4, #8
    5144:	1afffff7 	bne	5128 <fdt_next_node+0x78>
    5148:	e3550000 	cmp	r5, #0
    514c:	03e04000 	mvneq	r4, #0
    5150:	eafffff4 	b	5128 <fdt_next_node+0x78>
    5154:	e3550000 	cmp	r5, #0
    5158:	0affffec 	beq	5110 <fdt_next_node+0x60>
    515c:	e5953000 	ldr	r3, [r5]
    5160:	e2433001 	sub	r3, r3, #1
    5164:	e3530000 	cmp	r3, #0
    5168:	e5853000 	str	r3, [r5]
    516c:	aaffffe7 	bge	5110 <fdt_next_node+0x60>
    5170:	e59d4004 	ldr	r4, [sp, #4]
    5174:	eaffffeb 	b	5128 <fdt_next_node+0x78>
    5178:	e3e04000 	mvn	r4, #0
    517c:	eaffffe9 	b	5128 <fdt_next_node+0x78>

00005180 <_fdt_find_string>:
    5180:	e92d40f8 	push	{r3, r4, r5, r6, r7, lr}
    5184:	e1a04000 	mov	r4, r0
    5188:	e1a00002 	mov	r0, r2
    518c:	e1a07001 	mov	r7, r1
    5190:	e1a06002 	mov	r6, r2
    5194:	ebfff8f7 	bl	3578 <strlen>
    5198:	e2805001 	add	r5, r0, #1
    519c:	e0657007 	rsb	r7, r5, r7
    51a0:	e0947007 	adds	r7, r4, r7
    51a4:	3a000003 	bcc	51b8 <_fdt_find_string+0x38>
    51a8:	ea00000a 	b	51d8 <_fdt_find_string+0x58>
    51ac:	e2844001 	add	r4, r4, #1
    51b0:	e1570004 	cmp	r7, r4
    51b4:	3a000007 	bcc	51d8 <_fdt_find_string+0x58>
    51b8:	e1a00004 	mov	r0, r4
    51bc:	e1a01006 	mov	r1, r6
    51c0:	e1a02005 	mov	r2, r5
    51c4:	ebfff8f3 	bl	3598 <memcmp>
    51c8:	e3500000 	cmp	r0, #0
    51cc:	1afffff6 	bne	51ac <_fdt_find_string+0x2c>
    51d0:	e1a00004 	mov	r0, r4
    51d4:	e8bd80f8 	pop	{r3, r4, r5, r6, r7, pc}
    51d8:	e3a04000 	mov	r4, #0
    51dc:	e1a00004 	mov	r0, r4
    51e0:	e8bd80f8 	pop	{r3, r4, r5, r6, r7, pc}

000051e4 <fdt_move>:
    51e4:	e92d40f8 	push	{r3, r4, r5, r6, r7, lr}
    51e8:	e1a07001 	mov	r7, r1
    51ec:	e1a06002 	mov	r6, r2
    51f0:	e1a05000 	mov	r5, r0
    51f4:	ebffff1c 	bl	4e6c <fdt_check_header>
    51f8:	e2504000 	subs	r4, r0, #0
    51fc:	1a000006 	bne	521c <fdt_move+0x38>
    5200:	e5952004 	ldr	r2, [r5, #4]
    5204:	e6bf2f32 	rev	r2, r2
    5208:	e1520006 	cmp	r2, r6
    520c:	8a000004 	bhi	5224 <fdt_move+0x40>
    5210:	e1a00007 	mov	r0, r7
    5214:	e1a01005 	mov	r1, r5
    5218:	ebfff8c7 	bl	353c <memmove>
    521c:	e1a00004 	mov	r0, r4
    5220:	e8bd80f8 	pop	{r3, r4, r5, r6, r7, pc}
    5224:	e3e04002 	mvn	r4, #2
    5228:	eafffffb 	b	521c <fdt_move+0x38>

0000522c <node_offset>:
    522c:	e92d4038 	push	{r3, r4, r5, lr}
    5230:	e1a05000 	mov	r5, r0
    5234:	e1a04001 	mov	r4, r1
    5238:	ebfffd47 	bl	475c <fdt_path_offset>
    523c:	e3700001 	cmn	r0, #1
    5240:	18bd8038 	popne	{r3, r4, r5, pc}
    5244:	e1a00005 	mov	r0, r5
    5248:	e1a02004 	mov	r2, r4
    524c:	e3a01000 	mov	r1, #0
    5250:	e8bd4038 	pop	{r3, r4, r5, lr}
    5254:	eafffb28 	b	3efc <fdt_add_subnode>

00005258 <setprop_cell.constprop.1>:
    5258:	e92d4070 	push	{r4, r5, r6, lr}
    525c:	e1a04001 	mov	r4, r1
    5260:	e59f1048 	ldr	r1, [pc, #72]	; 52b0 <setprop_cell.constprop.1+0x58>
    5264:	e24dd010 	sub	sp, sp, #16
    5268:	e1a06002 	mov	r6, r2
    526c:	e1a05000 	mov	r5, r0
    5270:	e08f1001 	add	r1, pc, r1
    5274:	ebffffec 	bl	522c <node_offset>
    5278:	e2501000 	subs	r1, r0, #0
    527c:	ba000008 	blt	52a4 <setprop_cell.constprop.1+0x4c>
    5280:	e28d3010 	add	r3, sp, #16
    5284:	e3a0e004 	mov	lr, #4
    5288:	e6bf6f36 	rev	r6, r6
    528c:	e1a00005 	mov	r0, r5
    5290:	e5236004 	str	r6, [r3, #-4]!
    5294:	e1a02004 	mov	r2, r4
    5298:	e58de000 	str	lr, [sp]
    529c:	ebfffa47 	bl	3bc0 <fdt_setprop>
    52a0:	e1a01000 	mov	r1, r0
    52a4:	e1a00001 	mov	r0, r1
    52a8:	e28dd010 	add	sp, sp, #16
    52ac:	e8bd8070 	pop	{r4, r5, r6, pc}
    52b0:	00001224 	.word	0x00001224

000052b4 <atags_to_fdt>:
    52b4:	e92d4ff0 	push	{r4, r5, r6, r7, r8, r9, sl, fp, lr}
    52b8:	e1a04000 	mov	r4, r0
    52bc:	e2100003 	ands	r0, r0, #3
    52c0:	e24dd05c 	sub	sp, sp, #92	; 0x5c
    52c4:	e1a05001 	mov	r5, r1
    52c8:	1a000009 	bne	52f4 <atags_to_fdt+0x40>
    52cc:	e594c000 	ldr	ip, [r4]
    52d0:	e3a03edd 	mov	r3, #3536	; 0xdd0
    52d4:	e34e3dfe 	movt	r3, #60926	; 0xedfe
    52d8:	e15c0003 	cmp	ip, r3
    52dc:	0a000005 	beq	52f8 <atags_to_fdt+0x44>
    52e0:	e5940004 	ldr	r0, [r4, #4]
    52e4:	e3a03001 	mov	r3, #1
    52e8:	e3453441 	movt	r3, #21569	; 0x5441
    52ec:	e1500003 	cmp	r0, r3
    52f0:	0a000002 	beq	5300 <atags_to_fdt+0x4c>
    52f4:	e3a00001 	mov	r0, #1
    52f8:	e28dd05c 	add	sp, sp, #92	; 0x5c
    52fc:	e8bd8ff0 	pop	{r4, r5, r6, r7, r8, r9, sl, fp, pc}
    5300:	e35c0002 	cmp	ip, #2
    5304:	135c0005 	cmpne	ip, #5
    5308:	03a08000 	moveq	r8, #0
    530c:	13a08001 	movne	r8, #1
    5310:	1afffff7 	bne	52f4 <atags_to_fdt+0x40>
    5314:	e1a00001 	mov	r0, r1
    5318:	ebfffb19 	bl	3f84 <fdt_open_into>
    531c:	e3500000 	cmp	r0, #0
    5320:	bafffff4 	blt	52f8 <atags_to_fdt+0x44>
    5324:	e5943000 	ldr	r3, [r4]
    5328:	e3530000 	cmp	r3, #0
    532c:	0a00004b 	beq	5460 <atags_to_fdt+0x1ac>
    5330:	e59f0168 	ldr	r0, [pc, #360]	; 54a0 <atags_to_fdt+0x1ec>
    5334:	e3a06009 	mov	r6, #9
    5338:	e59f2164 	ldr	r2, [pc, #356]	; 54a4 <atags_to_fdt+0x1f0>
    533c:	e3a07005 	mov	r7, #5
    5340:	e59fa160 	ldr	sl, [pc, #352]	; 54a8 <atags_to_fdt+0x1f4>
    5344:	e1a0b008 	mov	fp, r8
    5348:	e59f915c 	ldr	r9, [pc, #348]	; 54ac <atags_to_fdt+0x1f8>
    534c:	e08f0000 	add	r0, pc, r0
    5350:	e08f2002 	add	r2, pc, r2
    5354:	e58d0010 	str	r0, [sp, #16]
    5358:	e58d2014 	str	r2, [sp, #20]
    535c:	e08fa00a 	add	sl, pc, sl
    5360:	e08f9009 	add	r9, pc, r9
    5364:	e3456441 	movt	r6, #21569	; 0x5441
    5368:	e3457442 	movt	r7, #21570	; 0x5442
    536c:	ea000006 	b	538c <atags_to_fdt+0xd8>
    5370:	e1530007 	cmp	r3, r7
    5374:	0a00003c 	beq	546c <atags_to_fdt+0x1b8>
    5378:	e5943000 	ldr	r3, [r4]
    537c:	e1a03103 	lsl	r3, r3, #2
    5380:	e7b43003 	ldr	r3, [r4, r3]!
    5384:	e3530000 	cmp	r3, #0
    5388:	0a000025 	beq	5424 <atags_to_fdt+0x170>
    538c:	e5943004 	ldr	r3, [r4, #4]
    5390:	e3a0c002 	mov	ip, #2
    5394:	e345c441 	movt	ip, #21569	; 0x5441
    5398:	e1530006 	cmp	r3, r6
    539c:	0a00000f 	beq	53e0 <atags_to_fdt+0x12c>
    53a0:	e153000c 	cmp	r3, ip
    53a4:	1afffff1 	bne	5370 <atags_to_fdt+0xbc>
    53a8:	e35b000f 	cmp	fp, #15
    53ac:	8afffff1 	bhi	5378 <atags_to_fdt+0xc4>
    53b0:	e5943008 	ldr	r3, [r4, #8]
    53b4:	e28d0058 	add	r0, sp, #88	; 0x58
    53b8:	e080110b 	add	r1, r0, fp, lsl #2
    53bc:	e3530000 	cmp	r3, #0
    53c0:	0affffec 	beq	5378 <atags_to_fdt+0xc4>
    53c4:	e594000c 	ldr	r0, [r4, #12]
    53c8:	e28bb002 	add	fp, fp, #2
    53cc:	e6bf3f33 	rev	r3, r3
    53d0:	e6bf0f30 	rev	r0, r0
    53d4:	e501303c 	str	r3, [r1, #-60]	; 0x3c
    53d8:	e5010040 	str	r0, [r1, #-64]	; 0x40
    53dc:	eaffffe5 	b	5378 <atags_to_fdt+0xc4>
    53e0:	e1a0100a 	mov	r1, sl
    53e4:	e1a00005 	mov	r0, r5
    53e8:	ebffff8f 	bl	522c <node_offset>
    53ec:	e2501000 	subs	r1, r0, #0
    53f0:	e2848008 	add	r8, r4, #8
    53f4:	e1a00008 	mov	r0, r8
    53f8:	baffffde 	blt	5378 <atags_to_fdt+0xc4>
    53fc:	e58d100c 	str	r1, [sp, #12]
    5400:	ebfff85c 	bl	3578 <strlen>
    5404:	e2800001 	add	r0, r0, #1
    5408:	e59d100c 	ldr	r1, [sp, #12]
    540c:	e58d0000 	str	r0, [sp]
    5410:	e1a03008 	mov	r3, r8
    5414:	e1a00005 	mov	r0, r5
    5418:	e1a02009 	mov	r2, r9
    541c:	ebfff9e7 	bl	3bc0 <fdt_setprop>
    5420:	eaffffd4 	b	5378 <atags_to_fdt+0xc4>
    5424:	e35b0000 	cmp	fp, #0
    5428:	0a00000c 	beq	5460 <atags_to_fdt+0x1ac>
    542c:	e59f107c 	ldr	r1, [pc, #124]	; 54b0 <atags_to_fdt+0x1fc>
    5430:	e1a00005 	mov	r0, r5
    5434:	e08f1001 	add	r1, pc, r1
    5438:	ebffff7b 	bl	522c <node_offset>
    543c:	e2501000 	subs	r1, r0, #0
    5440:	ba000006 	blt	5460 <atags_to_fdt+0x1ac>
    5444:	e59f2068 	ldr	r2, [pc, #104]	; 54b4 <atags_to_fdt+0x200>
    5448:	e1a0c10b 	lsl	ip, fp, #2
    544c:	e1a00005 	mov	r0, r5
    5450:	e58dc000 	str	ip, [sp]
    5454:	e28d3018 	add	r3, sp, #24
    5458:	e08f2002 	add	r2, pc, r2
    545c:	ebfff9d7 	bl	3bc0 <fdt_setprop>
    5460:	e1a00005 	mov	r0, r5
    5464:	ebfffb34 	bl	413c <fdt_pack>
    5468:	eaffffa2 	b	52f8 <atags_to_fdt+0x44>
    546c:	e5948008 	ldr	r8, [r4, #8]
    5470:	e1a00005 	mov	r0, r5
    5474:	e594300c 	ldr	r3, [r4, #12]
    5478:	e59d1010 	ldr	r1, [sp, #16]
    547c:	e1a02008 	mov	r2, r8
    5480:	e58d300c 	str	r3, [sp, #12]
    5484:	ebffff73 	bl	5258 <setprop_cell.constprop.1>
    5488:	e59d300c 	ldr	r3, [sp, #12]
    548c:	e1a00005 	mov	r0, r5
    5490:	e59d1014 	ldr	r1, [sp, #20]
    5494:	e0832008 	add	r2, r3, r8
    5498:	ebffff6e 	bl	5258 <setprop_cell.constprop.1>
    549c:	eaffffb5 	b	5378 <atags_to_fdt+0xc4>
    54a0:	0000115c 	.word	0x0000115c
    54a4:	0000116c 	.word	0x0000116c
    54a8:	00001138 	.word	0x00001138
    54ac:	0000113c 	.word	0x0000113c
    54b0:	0000109c 	.word	0x0000109c
    54b4:	00001080 	.word	0x00001080

000054b8 <__aeabi_uidiv>:
    54b8:	e2512001 	subs	r2, r1, #1
    54bc:	01a0f00e 	moveq	pc, lr
    54c0:	3a0000b8 	bcc	57a8 <Ldiv0>
    54c4:	e1500001 	cmp	r0, r1
    54c8:	9a00001a 	bls	5538 <__aeabi_uidiv+0x80>
    54cc:	e1110002 	tst	r1, r2
    54d0:	0a00001b 	beq	5544 <__aeabi_uidiv+0x8c>
    54d4:	e16f3f11 	clz	r3, r1
    54d8:	e16f2f10 	clz	r2, r0
    54dc:	e0432002 	sub	r2, r3, r2
    54e0:	e3a03001 	mov	r3, #1
    54e4:	e1a01211 	lsl	r1, r1, r2
    54e8:	e1a03213 	lsl	r3, r3, r2
    54ec:	e3a02000 	mov	r2, #0
    54f0:	e1500001 	cmp	r0, r1
    54f4:	20400001 	subcs	r0, r0, r1
    54f8:	21822003 	orrcs	r2, r2, r3
    54fc:	e15000a1 	cmp	r0, r1, lsr #1
    5500:	204000a1 	subcs	r0, r0, r1, lsr #1
    5504:	218220a3 	orrcs	r2, r2, r3, lsr #1
    5508:	e1500121 	cmp	r0, r1, lsr #2
    550c:	20400121 	subcs	r0, r0, r1, lsr #2
    5510:	21822123 	orrcs	r2, r2, r3, lsr #2
    5514:	e15001a1 	cmp	r0, r1, lsr #3
    5518:	204001a1 	subcs	r0, r0, r1, lsr #3
    551c:	218221a3 	orrcs	r2, r2, r3, lsr #3
    5520:	e3500000 	cmp	r0, #0
    5524:	11b03223 	lsrsne	r3, r3, #4
    5528:	11a01221 	lsrne	r1, r1, #4
    552c:	1affffef 	bne	54f0 <__aeabi_uidiv+0x38>
    5530:	e1a00002 	mov	r0, r2
    5534:	e1a0f00e 	mov	pc, lr
    5538:	03a00001 	moveq	r0, #1
    553c:	13a00000 	movne	r0, #0
    5540:	e1a0f00e 	mov	pc, lr
    5544:	e16f2f11 	clz	r2, r1
    5548:	e262201f 	rsb	r2, r2, #31
    554c:	e1a00230 	lsr	r0, r0, r2
    5550:	e1a0f00e 	mov	pc, lr

00005554 <__umodsi3>:
    5554:	e2512001 	subs	r2, r1, #1
    5558:	3a000092 	bcc	57a8 <Ldiv0>
    555c:	11500001 	cmpne	r0, r1
    5560:	03a00000 	moveq	r0, #0
    5564:	81110002 	tsthi	r1, r2
    5568:	00000002 	andeq	r0, r0, r2
    556c:	91a0f00e 	movls	pc, lr
    5570:	e16f2f11 	clz	r2, r1
    5574:	e16f3f10 	clz	r3, r0
    5578:	e0422003 	sub	r2, r2, r3
    557c:	e1a01211 	lsl	r1, r1, r2
    5580:	e2522003 	subs	r2, r2, #3
    5584:	ba00000e 	blt	55c4 <__umodsi3+0x70>
    5588:	e1500001 	cmp	r0, r1
    558c:	20400001 	subcs	r0, r0, r1
    5590:	e15000a1 	cmp	r0, r1, lsr #1
    5594:	204000a1 	subcs	r0, r0, r1, lsr #1
    5598:	e1500121 	cmp	r0, r1, lsr #2
    559c:	20400121 	subcs	r0, r0, r1, lsr #2
    55a0:	e15001a1 	cmp	r0, r1, lsr #3
    55a4:	204001a1 	subcs	r0, r0, r1, lsr #3
    55a8:	e3500001 	cmp	r0, #1
    55ac:	e1a01221 	lsr	r1, r1, #4
    55b0:	a2522004 	subsge	r2, r2, #4
    55b4:	aafffff3 	bge	5588 <__umodsi3+0x34>
    55b8:	e3120003 	tst	r2, #3
    55bc:	13300000 	teqne	r0, #0
    55c0:	0a00000a 	beq	55f0 <__umodsi3+0x9c>
    55c4:	e3720002 	cmn	r2, #2
    55c8:	ba000006 	blt	55e8 <__umodsi3+0x94>
    55cc:	0a000002 	beq	55dc <__umodsi3+0x88>
    55d0:	e1500001 	cmp	r0, r1
    55d4:	20400001 	subcs	r0, r0, r1
    55d8:	e1a010a1 	lsr	r1, r1, #1
    55dc:	e1500001 	cmp	r0, r1
    55e0:	20400001 	subcs	r0, r0, r1
    55e4:	e1a010a1 	lsr	r1, r1, #1
    55e8:	e1500001 	cmp	r0, r1
    55ec:	20400001 	subcs	r0, r0, r1
    55f0:	e1a0f00e 	mov	pc, lr

000055f4 <__aeabi_idiv>:
    55f4:	e3510000 	cmp	r1, #0
    55f8:	e020c001 	eor	ip, r0, r1
    55fc:	0a000069 	beq	57a8 <Ldiv0>
    5600:	42611000 	rsbmi	r1, r1, #0
    5604:	e2512001 	subs	r2, r1, #1
    5608:	0a00001f 	beq	568c <__aeabi_idiv+0x98>
    560c:	e1b03000 	movs	r3, r0
    5610:	42603000 	rsbmi	r3, r0, #0
    5614:	e1530001 	cmp	r3, r1
    5618:	9a00001e 	bls	5698 <__aeabi_idiv+0xa4>
    561c:	e1110002 	tst	r1, r2
    5620:	0a000020 	beq	56a8 <__aeabi_idiv+0xb4>
    5624:	e16f2f11 	clz	r2, r1
    5628:	e16f0f13 	clz	r0, r3
    562c:	e0420000 	sub	r0, r2, r0
    5630:	e3a02001 	mov	r2, #1
    5634:	e1a01011 	lsl	r1, r1, r0
    5638:	e1a02012 	lsl	r2, r2, r0
    563c:	e3a00000 	mov	r0, #0
    5640:	e1530001 	cmp	r3, r1
    5644:	20433001 	subcs	r3, r3, r1
    5648:	21800002 	orrcs	r0, r0, r2
    564c:	e15300a1 	cmp	r3, r1, lsr #1
    5650:	204330a1 	subcs	r3, r3, r1, lsr #1
    5654:	218000a2 	orrcs	r0, r0, r2, lsr #1
    5658:	e1530121 	cmp	r3, r1, lsr #2
    565c:	20433121 	subcs	r3, r3, r1, lsr #2
    5660:	21800122 	orrcs	r0, r0, r2, lsr #2
    5664:	e15301a1 	cmp	r3, r1, lsr #3
    5668:	204331a1 	subcs	r3, r3, r1, lsr #3
    566c:	218001a2 	orrcs	r0, r0, r2, lsr #3
    5670:	e3530000 	cmp	r3, #0
    5674:	11b02222 	lsrsne	r2, r2, #4
    5678:	11a01221 	lsrne	r1, r1, #4
    567c:	1affffef 	bne	5640 <__aeabi_idiv+0x4c>
    5680:	e35c0000 	cmp	ip, #0
    5684:	42600000 	rsbmi	r0, r0, #0
    5688:	e1a0f00e 	mov	pc, lr
    568c:	e13c0000 	teq	ip, r0
    5690:	42600000 	rsbmi	r0, r0, #0
    5694:	e1a0f00e 	mov	pc, lr
    5698:	33a00000 	movcc	r0, #0
    569c:	01a00fcc 	asreq	r0, ip, #31
    56a0:	03800001 	orreq	r0, r0, #1
    56a4:	e1a0f00e 	mov	pc, lr
    56a8:	e16f2f11 	clz	r2, r1
    56ac:	e262201f 	rsb	r2, r2, #31
    56b0:	e35c0000 	cmp	ip, #0
    56b4:	e1a00233 	lsr	r0, r3, r2
    56b8:	42600000 	rsbmi	r0, r0, #0
    56bc:	e1a0f00e 	mov	pc, lr

000056c0 <__modsi3>:
    56c0:	e3510000 	cmp	r1, #0
    56c4:	0a000037 	beq	57a8 <Ldiv0>
    56c8:	42611000 	rsbmi	r1, r1, #0
    56cc:	e1b0c000 	movs	ip, r0
    56d0:	42600000 	rsbmi	r0, r0, #0
    56d4:	e2512001 	subs	r2, r1, #1
    56d8:	11500001 	cmpne	r0, r1
    56dc:	03a00000 	moveq	r0, #0
    56e0:	81110002 	tsthi	r1, r2
    56e4:	00000002 	andeq	r0, r0, r2
    56e8:	9a00001f 	bls	576c <__modsi3+0xac>
    56ec:	e16f2f11 	clz	r2, r1
    56f0:	e16f3f10 	clz	r3, r0
    56f4:	e0422003 	sub	r2, r2, r3
    56f8:	e1a01211 	lsl	r1, r1, r2
    56fc:	e2522003 	subs	r2, r2, #3
    5700:	ba00000e 	blt	5740 <__modsi3+0x80>
    5704:	e1500001 	cmp	r0, r1
    5708:	20400001 	subcs	r0, r0, r1
    570c:	e15000a1 	cmp	r0, r1, lsr #1
    5710:	204000a1 	subcs	r0, r0, r1, lsr #1
    5714:	e1500121 	cmp	r0, r1, lsr #2
    5718:	20400121 	subcs	r0, r0, r1, lsr #2
    571c:	e15001a1 	cmp	r0, r1, lsr #3
    5720:	204001a1 	subcs	r0, r0, r1, lsr #3
    5724:	e3500001 	cmp	r0, #1
    5728:	e1a01221 	lsr	r1, r1, #4
    572c:	a2522004 	subsge	r2, r2, #4
    5730:	aafffff3 	bge	5704 <__modsi3+0x44>
    5734:	e3120003 	tst	r2, #3
    5738:	13300000 	teqne	r0, #0
    573c:	0a00000a 	beq	576c <__modsi3+0xac>
    5740:	e3720002 	cmn	r2, #2
    5744:	ba000006 	blt	5764 <__modsi3+0xa4>
    5748:	0a000002 	beq	5758 <__modsi3+0x98>
    574c:	e1500001 	cmp	r0, r1
    5750:	20400001 	subcs	r0, r0, r1
    5754:	e1a010a1 	lsr	r1, r1, #1
    5758:	e1500001 	cmp	r0, r1
    575c:	20400001 	subcs	r0, r0, r1
    5760:	e1a010a1 	lsr	r1, r1, #1
    5764:	e1500001 	cmp	r0, r1
    5768:	20400001 	subcs	r0, r0, r1
    576c:	e35c0000 	cmp	ip, #0
    5770:	42600000 	rsbmi	r0, r0, #0
    5774:	e1a0f00e 	mov	pc, lr

00005778 <__aeabi_uidivmod>:
    5778:	e92d5003 	push	{r0, r1, ip, lr}
    577c:	ebffff4d 	bl	54b8 <__aeabi_uidiv>
    5780:	e8bd5006 	pop	{r1, r2, ip, lr}
    5784:	e0030290 	mul	r3, r0, r2
    5788:	e0411003 	sub	r1, r1, r3
    578c:	e1a0f00e 	mov	pc, lr

00005790 <__aeabi_idivmod>:
    5790:	e92d5003 	push	{r0, r1, ip, lr}
    5794:	ebffff96 	bl	55f4 <__aeabi_idiv>
    5798:	e8bd5006 	pop	{r1, r2, ip, lr}
    579c:	e0030290 	mul	r3, r0, r2
    57a0:	e0411003 	sub	r1, r1, r3
    57a4:	e1a0f00e 	mov	pc, lr

000057a8 <Ldiv0>:
    57a8:	e52de008 	str	lr, [sp, #-8]!
    57ac:	ebffec65 	bl	948 <__div0>
    57b0:	e3a00000 	mov	r0, #0
    57b4:	e49df008 	ldr	pc, [sp], #8

000057b8 <__aeabi_llsl>:
    57b8:	e2523020 	subs	r3, r2, #32
    57bc:	e262c020 	rsb	ip, r2, #32
    57c0:	41a01211 	lslmi	r1, r1, r2
    57c4:	51a01310 	lslpl	r1, r0, r3
    57c8:	41811c30 	orrmi	r1, r1, r0, lsr ip
    57cc:	e1a00210 	lsl	r0, r0, r2
    57d0:	e1a0f00e 	mov	pc, lr
